; generated by ARM C/C++ Compiler, 5.03 [Build 76]
; commandline ArmCC [--list --split_sections --debug -c --asm --interleave -o..\outputs\obdtask.o --asm_dir=..\Outputs\ --list_dir=..\Outputs\ --depend=..\outputs\obdtask.d --cpu=Cortex-M3 --apcs=interwork -O0 -I..\CMSIS -I..\Library\inc -I..\Library\STM32_USB-FS-Device_Driver\inc -I..\Kernel -I..\BSP\Basic -I..\BSP\GPS -I..\BSP\Sim900A -I..\BSP -I..\BSP\IWDG -I..\BSP\BlueTooth -I..\BSP\Led -I..\BSP\Key -I..\BSP\ADC -I..\BSP\Adxl345 -I..\BSP\TL718 -I..\BSP\PAM8403 -I..\BSP\W25X16 -I..\BSP\USB -I..\App\Debug -I..\App\SelfCheck -I..\App\GPSTask -I..\App\OBD -I..\App\Mems -I..\App\Voltage -I..\App\LKClient -I..\App\Paramlist -I..\App\ATC30 -I..\App -I..\BSP\mpu6050 -I..\App\mid-proc -I..\App\mpu6050Task -I..\BSP\dmp -I..\BSP\Bluetooth -IC:\Keil\ARM\RV31\INC -IC:\Keil\ARM\CMSIS\Include -IC:\Keil\ARM\Inc\ST\STM32F10x -D__MICROLIB -DUSE_STDPERIPH_DRIVER -DSTM32F10X_HD -DUSE_STM3210C_EVAL -DHXZ_RELEASE_VERSION --omf_browse=..\outputs\obdtask.crf ..\App\OBD\OBDTask.c]
                          THUMB

                          AREA ||i.Change_OBDDTC_Form||, CODE, READONLY, ALIGN=1

                  Change_OBDDTC_Form PROC
;;;120     */
;;;121    void Change_OBDDTC_Form(BYTE byte, BYTE * Cbyte )
000000  f1a00230          SUB      r2,r0,#0x30
;;;122    {
;;;123    	switch (byte)
000004  2a17              CMP      r2,#0x17
000006  d25d              BCS      |L1.196|
000008  e8dff002          TBB      [pc,r2]
00000c  0c11161b          DCB      0x0c,0x11,0x16,0x1b
000010  20252a2f          DCB      0x20,0x25,0x2a,0x2f
000014  34395c5c          DCB      0x34,0x39,0x5c,0x5c
000018  5c5c5c5c          DCB      0x5c,0x5c,0x5c,0x5c
00001c  5c3e4348          DCB      0x5c,0x3e,0x43,0x48
000020  4d525700          DCB      0x4d,0x52,0x57,0x00
;;;124    	{
;;;125    		case (0x30) : *Cbyte = 'P' ; *(Cbyte+1) = '0';	break;
000024  2250              MOVS     r2,#0x50
000026  700a              STRB     r2,[r1,#0]
000028  2230              MOVS     r2,#0x30
00002a  704a              STRB     r2,[r1,#1]
00002c  e04b              B        |L1.198|
;;;126    		case (0x31) : *Cbyte = 'P' ; *(Cbyte+1) = '1';	break;
00002e  2250              MOVS     r2,#0x50
000030  700a              STRB     r2,[r1,#0]
000032  2231              MOVS     r2,#0x31
000034  704a              STRB     r2,[r1,#1]
000036  e046              B        |L1.198|
;;;127    		case (0x32) : *Cbyte = 'P' ; *(Cbyte+1) = '2';	break;
000038  2250              MOVS     r2,#0x50
00003a  700a              STRB     r2,[r1,#0]
00003c  2232              MOVS     r2,#0x32
00003e  704a              STRB     r2,[r1,#1]
000040  e041              B        |L1.198|
;;;128    		case (0x33) : *Cbyte = 'P' ; *(Cbyte+1) = '3';	break;
000042  2250              MOVS     r2,#0x50
000044  700a              STRB     r2,[r1,#0]
000046  2233              MOVS     r2,#0x33
000048  704a              STRB     r2,[r1,#1]
00004a  e03c              B        |L1.198|
;;;129    		case (0x34) : *Cbyte = 'C' ; *(Cbyte+1) = '0';	break;
00004c  2243              MOVS     r2,#0x43
00004e  700a              STRB     r2,[r1,#0]
000050  2230              MOVS     r2,#0x30
000052  704a              STRB     r2,[r1,#1]
000054  e037              B        |L1.198|
;;;130    		case (0x35) : *Cbyte = 'C' ; *(Cbyte+1) = '1';	break;
000056  2243              MOVS     r2,#0x43
000058  700a              STRB     r2,[r1,#0]
00005a  2231              MOVS     r2,#0x31
00005c  704a              STRB     r2,[r1,#1]
00005e  e032              B        |L1.198|
;;;131    		case (0x36) : *Cbyte = 'C' ; *(Cbyte+1) = '2';	break;
000060  2243              MOVS     r2,#0x43
000062  700a              STRB     r2,[r1,#0]
000064  2232              MOVS     r2,#0x32
000066  704a              STRB     r2,[r1,#1]
000068  e02d              B        |L1.198|
;;;132    		case (0x37) : *Cbyte = 'C' ; *(Cbyte+1) = '3';	break;
00006a  2243              MOVS     r2,#0x43
00006c  700a              STRB     r2,[r1,#0]
00006e  2233              MOVS     r2,#0x33
000070  704a              STRB     r2,[r1,#1]
000072  e028              B        |L1.198|
;;;133    		case (0x38) : *Cbyte = 'B' ; *(Cbyte+1) = '0';	break;
000074  2242              MOVS     r2,#0x42
000076  700a              STRB     r2,[r1,#0]
000078  2230              MOVS     r2,#0x30
00007a  704a              STRB     r2,[r1,#1]
00007c  e023              B        |L1.198|
;;;134    		case (0x39) : *Cbyte = 'B' ; *(Cbyte+1) = '1';	break;
00007e  2242              MOVS     r2,#0x42
000080  700a              STRB     r2,[r1,#0]
000082  2231              MOVS     r2,#0x31
000084  704a              STRB     r2,[r1,#1]
000086  e01e              B        |L1.198|
;;;135    		case (0x41) : *Cbyte = 'B' ; *(Cbyte+1) = '2';	break;
000088  2242              MOVS     r2,#0x42
00008a  700a              STRB     r2,[r1,#0]
00008c  2232              MOVS     r2,#0x32
00008e  704a              STRB     r2,[r1,#1]
000090  e019              B        |L1.198|
;;;136    		case (0x42) : *Cbyte = 'B' ; *(Cbyte+1) = '3';	break;
000092  2242              MOVS     r2,#0x42
000094  700a              STRB     r2,[r1,#0]
000096  2233              MOVS     r2,#0x33
000098  704a              STRB     r2,[r1,#1]
00009a  e014              B        |L1.198|
;;;137    		case (0x43) : *Cbyte = 'U' ; *(Cbyte+1) = '0';	break;
00009c  2255              MOVS     r2,#0x55
00009e  700a              STRB     r2,[r1,#0]
0000a0  2230              MOVS     r2,#0x30
0000a2  704a              STRB     r2,[r1,#1]
0000a4  e00f              B        |L1.198|
;;;138    		case (0x44) : *Cbyte = 'U' ; *(Cbyte+1) = '1';	break;
0000a6  2255              MOVS     r2,#0x55
0000a8  700a              STRB     r2,[r1,#0]
0000aa  2231              MOVS     r2,#0x31
0000ac  704a              STRB     r2,[r1,#1]
0000ae  e00a              B        |L1.198|
;;;139    		case (0x45) : *Cbyte = 'U' ; *(Cbyte+1) = '2';	break;
0000b0  2255              MOVS     r2,#0x55
0000b2  700a              STRB     r2,[r1,#0]
0000b4  2232              MOVS     r2,#0x32
0000b6  704a              STRB     r2,[r1,#1]
0000b8  e005              B        |L1.198|
;;;140    		case (0x46) : *Cbyte = 'U' ; *(Cbyte+1) = '3';	break;
0000ba  2255              MOVS     r2,#0x55
0000bc  700a              STRB     r2,[r1,#0]
0000be  2233              MOVS     r2,#0x33
0000c0  704a              STRB     r2,[r1,#1]
0000c2  e000              B        |L1.198|
                  |L1.196|
;;;141    		default :                                       break;
0000c4  bf00              NOP      
                  |L1.198|
0000c6  bf00              NOP                            ;125
;;;142    	}
;;;143    }
0000c8  4770              BX       lr
;;;144    
                          ENDP


                          AREA ||i.OBDTask||, CODE, READONLY, ALIGN=2

                  OBDTask PROC
;;;336     */
;;;337    void OBDTask(void)
000000  b500              PUSH     {lr}
;;;338    {
000002  b09b              SUB      sp,sp,#0x6c
;;;339    	if(OBDTaskOver == bTRUE){
000004  48fe              LDR      r0,|L2.1024|
000006  7800              LDRB     r0,[r0,#0]  ; OBDTaskOver
000008  2801              CMP      r0,#1
00000a  d101              BNE      |L2.16|
                  |L2.12|
;;;340    		return;
;;;341    	}	
;;;342    	
;;;343    	if(Timer_GetReached(&OBDOpenPowerTim) != bTRUE){
;;;344     		return;
;;;345     	}
;;;346    	
;;;347    	switch (OBDCom)
;;;348    	{
;;;349    		case (Req):		
;;;350    			OBD_SendData(OBDCMD[OBDCmdNum].Cmd,OBDCMD[OBDCmdNum].CmdLen);			
;;;351    			Timer_Set(&OBDUartTim,20000);
;;;352    			OBDCom = Wait;						
;;;353    			break;
;;;354    
;;;355    		case (Wait): 
;;;356    			if(OBData_bAvail == bTRUE){
;;;357    				OBDCom = Handle;
;;;358    			}else{
;;;359    				if(Timer_GetReached(&OBDUartTim) == bTRUE){
;;;360    					OBD_SetDiagnoseOver();                  // 结束OBD诊断
;;;361    				}
;;;362    			}
;;;363    		 	break;
;;;364    
;;;365    		case (Handle):
;;;366    			if(OBDCmdNum == 0){										// ATSP0
;;;367    				if(RMLStrcmp(OBData,(BYTE *)"ATSP0\rOK",8) == 1){	
;;;368    					OBDCmdNum++;					
;;;369    				}else{
;;;370    					OBD_SetDiagnoseOver();                      
;;;371    				}
;;;372    			}else if(OBDCmdNum == 1){                               // ATST4B
;;;373    				if(RMLStrcmp(OBData,(BYTE *)"ATST4B\rOK",9) == 1){	
;;;374    					OBDCmdNum++;					
;;;375    				}else{
;;;376    					OBD_SetDiagnoseOver();                      
;;;377    				}				
;;;378    			}else if(OBDCmdNum == 2){                               // ATE0
;;;379    				if(RMLStrcmp(OBData,(BYTE *)"ATE0\rOK",7) == 1){	
;;;380    					OBDCmdNum++;					
;;;381    				}else{
;;;382    					OBD_SetDiagnoseOver();                      
;;;383    				}				
;;;384    			}else if(OBDCmdNum == 3){				                // 010C
;;;385    				if( (RMLStrcmp(OBData,(BYTE *)"SEARCHING...\r41 0C",5) == 1) 
;;;386    				    && ( (OBD_ASCToHex( OBData[19] , OBData[20] ) * 256 + OBD_ASCToHex(OBData[22] , OBData[23]) ) / 4 != 0 ) ){
;;;387    						OBDCmdNum++;
;;;388    						OBDSta = OBD_Run;
;;;389    				}else{
;;;390    					OBD_SetDiagnoseOver();  
;;;391    				}
;;;392    			}else if(OBDCmdNum == 4){                               // ATDPN
;;;393    				OBDPro = OBData[1];
;;;394    				OBDCmdNum++;
;;;395    			}else if(OBDCmdNum == 5){                               // ATH1
;;;396    				if(RMLStrcmp(OBData,(BYTE *)"OK",2) == 1){	
;;;397    					OBDCmdNum++;					
;;;398    				}else{
;;;399    					OBD_SetDiagnoseOver();                      
;;;400    				}							
;;;401    			}else if(OBDCmdNum == 6){                               // 03
;;;402    				if( (OBDPro == 0x36) || (OBDPro == 0x38) ){	                              // 如果是协议6/8 						 
;;;403    					OBD_CAN11bit_DTCHandle();
;;;404    				}else if( (OBDPro == 0x37) || (OBDPro == 0x39) ){	                      // 如果是协议7/9
;;;405    					OBD_CAN29bit_DTCHandle();
;;;406    				}else{
;;;407    					DTCNum = 0; 
;;;408    				}				
;;;409    				OBDCmdNum++;
;;;410    				
;;;411    			}else if(OBDCmdNum == 7){                               // ATH0
;;;412    				if(RMLStrcmp(OBData,(BYTE *)"OK",2) == 1){	
;;;413    					OBDCmdNum++;					
;;;414    				}else{
;;;415    					OBD_SetDiagnoseOver();                      
;;;416    				}					
;;;417    			}else if(OBDCmdNum == 8){								
;;;418    				/* 新一轮数据的计算 */
;;;419    				if( (RMLStrcmp(OBData,(BYTE *)"41 0C",5) == 1 ) 
;;;420    					&& ( (Obd_ASCToHex( OBData[6] , OBData[7] ) * 256 + Obd_ASCToHex(OBData[9] , OBData[10]) ) / 4 != 0 ) ){
;;;421    
;;;422    						INT32U DrvTimeTmp = 0;
;;;423    										
;;;424    						/* 进行这一轮的数据计算 */
;;;425    						DrvTimeTmp = Timer_GetElapse(&OBD_CarDrvTim);
;;;426    
;;;427    						/* 发动机转速 */
;;;428    						RPM = (Obd_ASCToHex( OBData[6] , OBData[7] ) * 256 + Obd_ASCToHex(OBData[9] , OBData[10]) ) / 4;
;;;429    
;;;430    						/* 更新本次行驶时间 */
;;;431    						DrvTime += DrvTimeTmp;
;;;432    
;;;433    						/* 更新本次行驶里程 */
;;;434    						LastSpd = NowSpd;
;;;435    						Km = Km + ( ( (double)NowSpd + (double)LastSpd ) / 2.0 / 3600.0 * ( (double)DrvTimeTmp / 1000.0) );
;;;436    
;;;437    						/* 计算由进气量计算的平均油耗 */
;;;438    						LastCurrentFuel_One = NowCurrentFuel_One;    
;;;439    						/* 计算这一回合耗油量 */
;;;440    						if(FuelType == 0){
;;;441    							NowCurrentFuel_One = MAF / 14.64 / 0.84 / 1000.0;
;;;442    						}else{
;;;443    							NowCurrentFuel_One = MAF / 14.64 / 0.84 / 1000.0 * ( (double)Load / 100.0);
;;;444    						}
;;;445    
;;;446    						Fuel_One = Fuel_One + ( ( LastCurrentFuel_One + NowCurrentFuel_One ) / 2.0 * ( (double)DrvTimeTmp / 1000.0) );
;;;447    						NowAverageFuelFlow_One = Fuel_One / Km * 100.0 * 10.0 ;
;;;448    
;;;449    						/* 计算由绝对负荷计算的平均油耗 */
;;;450    						LastCurrentFuel_Two = NowCurrentFuel_Two;
;;;451    						/* 计算这一回合耗油量 */
;;;452    						if(FuelType == 0){
;;;453    							NowCurrentFuel_Two = 1.184 * EngineDisplayment * (double)ALD / 100.0 * (double)RPM / 120.0 
;;;454    							                     / 14.64 / 0.84 / 1000.0;
;;;455    						}else{
;;;456    							NowCurrentFuel_Two = 1.184 * EngineDisplayment * (double)ALD / 100.0 * (double)RPM / 120.0
;;;457                    							     / 14.64 / 0.84 / 1000.0 * ( (double)Load / 100.0);
;;;458    						}						
;;;459    						Fuel_Two = Fuel_Two + ( ( LastCurrentFuel_Two + NowCurrentFuel_Two ) / 2.0 * ( (double)DrvTimeTmp / 1000.0) );
;;;460    						NowAverageFuelFlow_Two = Fuel_Two / Km * 100.0 * 10.0;
;;;461    
;;;462    						/* 计算由进气温度及进气压力计算的平均油耗 */
;;;463    						if( (MAP != 0) && (IAT != 0) ){
;;;464    							LastCurrentFuel_Three = NowCurrentFuel_Three;
;;;465    						/* 计算这一回合耗油量 */							
;;;466    							if(FuelType == 0){
;;;467    								NowCurrentFuel_Three = ( (double)MAP / ( (double)IAT + 273.15 ) ) * ( 29.0 / 8.3145 ) * ( (double)RPM / 120.0 ) * EngineDisplayment * 0.75 
;;;468    													 / 14.64 / 0.84 / 1000.0;
;;;469    							}else{
;;;470    								NowCurrentFuel_Three = ( (double)MAP / ( (double)IAT + 273.15 ) ) * ( 29.0 / 8.3145 ) * ( (double)RPM / 120.0 ) * EngineDisplayment * 0.75
;;;471    													 / 14.64 / 0.84 / 1000.0 * ( (double)Load / 100.0);
;;;472    							}
;;;473    							Fuel_Three = Fuel_Three + ( ( LastCurrentFuel_Three + NowCurrentFuel_Three ) / 2.0 * ( (double)DrvTimeTmp / 1000.0) );
;;;474    							NowAverageFuelFlow_Three = Fuel_Three / Km * 100.0 * 10.0 ;	
;;;475    						}		
;;;476    						Timer_Reset(&OBD_CarDrvTim);
;;;477    						OBDCmdNum++;		
;;;478    				}else{
;;;479    					OBD_SetDiagnoseOver();  
;;;480    				}
;;;481    				
;;;482    			}else if(OBDCmdNum == 9){
;;;483    				/* 车速 */
;;;484    				if( RMLStrcmp(OBData,(BYTE *)"41 0D",5) == 1 ){
;;;485    					NowSpd = Obd_ASCToHex( OBData[6] , OBData[7] );					
;;;486    				}
;;;487    				OBDCmdNum++;	
;;;488    			}else if(OBDCmdNum == 10){
;;;489    				/* 负荷 */
;;;490    				if( RMLStrcmp(OBData,(BYTE *)"41 04",5) == 1 ){
;;;491    					Load = Obd_ASCToHex( OBData[6] , OBData[7] ) * 100 / 255;	
;;;492    				}
;;;493    				OBDCmdNum++;	
;;;494    			}else if(OBDCmdNum == 11){
;;;495    				/* 水温 */
;;;496    				if( RMLStrcmp(OBData,(BYTE *)"41 05",5) == 1 ){
;;;497    					ECT = Obd_ASCToHex( OBData[6] , OBData[7] ) - 40;	
;;;498    				}
;;;499    				OBDCmdNum++;
;;;500    			}else if(OBDCmdNum == 12){
;;;501    				/* 进气压力 */
;;;502    				if( RMLStrcmp(OBData,(BYTE *)"41 0B",5) == 1 ){
;;;503    					MAP = Obd_ASCToHex( OBData[6] , OBData[7] );			
;;;504    				}					
;;;505    				OBDCmdNum++;	
;;;506    			}else if(OBDCmdNum == 13){
;;;507    				/* 进气温度 */
;;;508    				if( RMLStrcmp(OBData,(BYTE *)"41 0F",5) == 1 ){
;;;509    					IAT = Obd_ASCToHex( OBData[6] , OBData[7] ) - 40;
;;;510    				}
;;;511    				OBDCmdNum++;				
;;;512    			}else if(OBDCmdNum == 14){
;;;513    				/* 进气量 */
;;;514    				if( RMLStrcmp(OBData,(BYTE *)"41 10",5) == 1 ){
;;;515    					MAF = (double)(Obd_ASCToHex( OBData[6] , OBData[7] ) * 256 + Obd_ASCToHex(OBData[9] , OBData[10]) ) * 0.01;						
;;;516    				}
;;;517    				OBDCmdNum++;
;;;518    			}else if(OBDCmdNum == 15){
;;;519    				/* 绝对负荷 */
;;;520    				if( RMLStrcmp(OBData,(BYTE *)"41 43",5) == 1 ){
;;;521    					ALD = ( Obd_ASCToHex( OBData[6] , OBData[7] ) * 256 + Obd_ASCToHex( OBData[9] , OBData[10] ) ) * 100 / 255;
;;;522    				}
;;;523    				OBDCmdNum = 5;			
;;;524    			}
;;;525    			OBDCom = Req;	
;;;526    			break;
;;;527     
;;;528    		default:
;;;529    			break;
;;;530    	}
;;;531    }
00000c  b01b              ADD      sp,sp,#0x6c
00000e  bd00              POP      {pc}
                  |L2.16|
000010  48fc              LDR      r0,|L2.1028|
000012  f7fffffe          BL       Timer_GetReached
000016  2801              CMP      r0,#1                 ;343
000018  d000              BEQ      |L2.28|
00001a  e7f7              B        |L2.12|
                  |L2.28|
00001c  48fa              LDR      r0,|L2.1032|
00001e  7800              LDRB     r0,[r0,#0]            ;347  ; OBDCom
000020  b120              CBZ      r0,|L2.44|
000022  2801              CMP      r0,#1                 ;347
000024  d01b              BEQ      |L2.94|
000026  2802              CMP      r0,#2                 ;347
000028  d17e              BNE      |L2.296|
00002a  e028              B        |L2.126|
                  |L2.44|
00002c  48f7              LDR      r0,|L2.1036|
00002e  49f8              LDR      r1,|L2.1040|
000030  7809              LDRB     r1,[r1,#0]            ;350  ; OBDCmdNum
000032  eb0000c1          ADD      r0,r0,r1,LSL #3       ;350
000036  7900              LDRB     r0,[r0,#4]            ;350
000038  901a              STR      r0,[sp,#0x68]         ;350
00003a  48f4              LDR      r0,|L2.1036|
00003c  49f4              LDR      r1,|L2.1040|
00003e  7809              LDRB     r1,[r1,#0]            ;350  ; OBDCmdNum
000040  f8500031          LDR      r0,[r0,r1,LSL #3]     ;350
000044  9019              STR      r0,[sp,#0x64]         ;350
000046  991a              LDR      r1,[sp,#0x68]         ;350
000048  f7fffffe          BL       OBD_SendData
00004c  f6446120          MOV      r1,#0x4e20            ;351
000050  48f0              LDR      r0,|L2.1044|
000052  f7fffffe          BL       Timer_Set
000056  2001              MOVS     r0,#1                 ;352
000058  49eb              LDR      r1,|L2.1032|
00005a  7008              STRB     r0,[r1,#0]            ;352
                  |L2.92|
00005c  e3fe              B        |L2.2140|
                  |L2.94|
00005e  48ee              LDR      r0,|L2.1048|
000060  7800              LDRB     r0,[r0,#0]            ;356  ; OBData_bAvail
000062  2801              CMP      r0,#1                 ;356
000064  d103              BNE      |L2.110|
000066  2002              MOVS     r0,#2                 ;357
000068  49e7              LDR      r1,|L2.1032|
00006a  7008              STRB     r0,[r1,#0]            ;357
00006c  e006              B        |L2.124|
                  |L2.110|
00006e  48e9              LDR      r0,|L2.1044|
000070  f7fffffe          BL       Timer_GetReached
000074  2801              CMP      r0,#1                 ;359
000076  d101              BNE      |L2.124|
000078  f7fffffe          BL       OBD_SetDiagnoseOver
                  |L2.124|
00007c  e7ee              B        |L2.92|
                  |L2.126|
00007e  48e4              LDR      r0,|L2.1040|
000080  7800              LDRB     r0,[r0,#0]            ;366  ; OBDCmdNum
000082  b978              CBNZ     r0,|L2.164|
000084  2208              MOVS     r2,#8                 ;367
000086  a1e5              ADR      r1,|L2.1052|
000088  48e7              LDR      r0,|L2.1064|
00008a  f7fffffe          BL       RMLStrcmp
00008e  2801              CMP      r0,#1                 ;367
000090  d105              BNE      |L2.158|
000092  48df              LDR      r0,|L2.1040|
000094  7800              LDRB     r0,[r0,#0]            ;368  ; OBDCmdNum
000096  1c40              ADDS     r0,r0,#1              ;368
000098  49dd              LDR      r1,|L2.1040|
00009a  7008              STRB     r0,[r1,#0]            ;368
                  |L2.156|
00009c  e3fd              B        |L2.2202|
                  |L2.158|
00009e  f7fffffe          BL       OBD_SetDiagnoseOver
0000a2  e7fb              B        |L2.156|
                  |L2.164|
0000a4  48da              LDR      r0,|L2.1040|
0000a6  7800              LDRB     r0,[r0,#0]            ;372  ; OBDCmdNum
0000a8  2801              CMP      r0,#1                 ;372
0000aa  d10f              BNE      |L2.204|
0000ac  2209              MOVS     r2,#9                 ;373
0000ae  a1df              ADR      r1,|L2.1068|
0000b0  48dd              LDR      r0,|L2.1064|
0000b2  f7fffffe          BL       RMLStrcmp
0000b6  2801              CMP      r0,#1                 ;373
0000b8  d105              BNE      |L2.198|
0000ba  48d5              LDR      r0,|L2.1040|
0000bc  7800              LDRB     r0,[r0,#0]            ;374  ; OBDCmdNum
0000be  1c40              ADDS     r0,r0,#1              ;374
0000c0  49d3              LDR      r1,|L2.1040|
0000c2  7008              STRB     r0,[r1,#0]            ;374
0000c4  e7ea              B        |L2.156|
                  |L2.198|
0000c6  f7fffffe          BL       OBD_SetDiagnoseOver
0000ca  e7e7              B        |L2.156|
                  |L2.204|
0000cc  48d0              LDR      r0,|L2.1040|
0000ce  7800              LDRB     r0,[r0,#0]            ;378  ; OBDCmdNum
0000d0  2802              CMP      r0,#2                 ;378
0000d2  d10f              BNE      |L2.244|
0000d4  2207              MOVS     r2,#7                 ;379
0000d6  a1d8              ADR      r1,|L2.1080|
0000d8  48d3              LDR      r0,|L2.1064|
0000da  f7fffffe          BL       RMLStrcmp
0000de  2801              CMP      r0,#1                 ;379
0000e0  d105              BNE      |L2.238|
0000e2  48cb              LDR      r0,|L2.1040|
0000e4  7800              LDRB     r0,[r0,#0]            ;380  ; OBDCmdNum
0000e6  1c40              ADDS     r0,r0,#1              ;380
0000e8  49c9              LDR      r1,|L2.1040|
0000ea  7008              STRB     r0,[r1,#0]            ;380
0000ec  e7d6              B        |L2.156|
                  |L2.238|
0000ee  f7fffffe          BL       OBD_SetDiagnoseOver
0000f2  e7d3              B        |L2.156|
                  |L2.244|
0000f4  48c6              LDR      r0,|L2.1040|
0000f6  7800              LDRB     r0,[r0,#0]            ;384  ; OBDCmdNum
0000f8  2803              CMP      r0,#3                 ;384
0000fa  d12b              BNE      |L2.340|
0000fc  2205              MOVS     r2,#5                 ;385
0000fe  a1d0              ADR      r1,|L2.1088|
000100  48c9              LDR      r0,|L2.1064|
000102  f7fffffe          BL       RMLStrcmp
000106  2801              CMP      r0,#1                 ;385
000108  d121              BNE      |L2.334|
00010a  48c7              LDR      r0,|L2.1064|
00010c  7dc0              LDRB     r0,[r0,#0x17]         ;386  ; OBData
00010e  901a              STR      r0,[sp,#0x68]         ;386
000110  48c5              LDR      r0,|L2.1064|
000112  7d80              LDRB     r0,[r0,#0x16]         ;386  ; OBData
000114  9019              STR      r0,[sp,#0x64]         ;386
000116  991a              LDR      r1,[sp,#0x68]         ;386
000118  f7fffffe          BL       OBD_ASCToHex
00011c  4603              MOV      r3,r0                 ;386
00011e  48c2              LDR      r0,|L2.1064|
000120  7d00              LDRB     r0,[r0,#0x14]         ;386  ; OBData
000122  901a              STR      r0,[sp,#0x68]         ;386
000124  48c0              LDR      r0,|L2.1064|
000126  e000              B        |L2.298|
                  |L2.296|
000128  e3c1              B        |L2.2222|
                  |L2.298|
00012a  7cc0              LDRB     r0,[r0,#0x13]         ;386  ; OBData
00012c  9019              STR      r0,[sp,#0x64]         ;386
00012e  991a              LDR      r1,[sp,#0x68]         ;386
000130  f7fffffe          BL       OBD_ASCToHex
000134  eb032000          ADD      r0,r3,r0,LSL #8       ;386
000138  0880              LSRS     r0,r0,#2              ;386
00013a  d008              BEQ      |L2.334|
00013c  48b4              LDR      r0,|L2.1040|
00013e  7800              LDRB     r0,[r0,#0]            ;387  ; OBDCmdNum
000140  1c40              ADDS     r0,r0,#1              ;387
000142  49b3              LDR      r1,|L2.1040|
000144  7008              STRB     r0,[r1,#0]            ;387
000146  2001              MOVS     r0,#1                 ;388
000148  49c2              LDR      r1,|L2.1108|
00014a  7008              STRB     r0,[r1,#0]            ;388
00014c  e7a6              B        |L2.156|
                  |L2.334|
00014e  f7fffffe          BL       OBD_SetDiagnoseOver
000152  e7a3              B        |L2.156|
                  |L2.340|
000154  48ae              LDR      r0,|L2.1040|
000156  7800              LDRB     r0,[r0,#0]            ;392  ; OBDCmdNum
000158  2804              CMP      r0,#4                 ;392
00015a  d109              BNE      |L2.368|
00015c  48b2              LDR      r0,|L2.1064|
00015e  7840              LDRB     r0,[r0,#1]            ;393  ; OBData
000160  49bd              LDR      r1,|L2.1112|
000162  7008              STRB     r0,[r1,#0]            ;393
000164  48aa              LDR      r0,|L2.1040|
000166  7800              LDRB     r0,[r0,#0]            ;394  ; OBDCmdNum
000168  1c40              ADDS     r0,r0,#1              ;394
00016a  49a9              LDR      r1,|L2.1040|
00016c  7008              STRB     r0,[r1,#0]            ;394
00016e  e795              B        |L2.156|
                  |L2.368|
000170  48a7              LDR      r0,|L2.1040|
000172  7800              LDRB     r0,[r0,#0]            ;395  ; OBDCmdNum
000174  2805              CMP      r0,#5                 ;395
000176  d10f              BNE      |L2.408|
000178  2202              MOVS     r2,#2                 ;396
00017a  a1b8              ADR      r1,|L2.1116|
00017c  48aa              LDR      r0,|L2.1064|
00017e  f7fffffe          BL       RMLStrcmp
000182  2801              CMP      r0,#1                 ;396
000184  d105              BNE      |L2.402|
000186  48a2              LDR      r0,|L2.1040|
000188  7800              LDRB     r0,[r0,#0]            ;397  ; OBDCmdNum
00018a  1c40              ADDS     r0,r0,#1              ;397
00018c  49a0              LDR      r1,|L2.1040|
00018e  7008              STRB     r0,[r1,#0]            ;397
000190  e784              B        |L2.156|
                  |L2.402|
000192  f7fffffe          BL       OBD_SetDiagnoseOver
000196  e781              B        |L2.156|
                  |L2.408|
000198  489d              LDR      r0,|L2.1040|
00019a  7800              LDRB     r0,[r0,#0]            ;401  ; OBDCmdNum
00019c  2806              CMP      r0,#6                 ;401
00019e  d11e              BNE      |L2.478|
0001a0  48ad              LDR      r0,|L2.1112|
0001a2  7800              LDRB     r0,[r0,#0]            ;402  ; OBDPro
0001a4  2836              CMP      r0,#0x36              ;402
0001a6  d003              BEQ      |L2.432|
0001a8  48ab              LDR      r0,|L2.1112|
0001aa  7800              LDRB     r0,[r0,#0]            ;402  ; OBDPro
0001ac  2838              CMP      r0,#0x38              ;402
0001ae  d102              BNE      |L2.438|
                  |L2.432|
0001b0  f7fffffe          BL       OBD_CAN11bit_DTCHandle
0001b4  e00d              B        |L2.466|
                  |L2.438|
0001b6  48a8              LDR      r0,|L2.1112|
0001b8  7800              LDRB     r0,[r0,#0]            ;404  ; OBDPro
0001ba  2837              CMP      r0,#0x37              ;404
0001bc  d003              BEQ      |L2.454|
0001be  48a6              LDR      r0,|L2.1112|
0001c0  7800              LDRB     r0,[r0,#0]            ;404  ; OBDPro
0001c2  2839              CMP      r0,#0x39              ;404
0001c4  d102              BNE      |L2.460|
                  |L2.454|
0001c6  f7fffffe          BL       OBD_CAN29bit_DTCHandle
0001ca  e002              B        |L2.466|
                  |L2.460|
0001cc  2000              MOVS     r0,#0                 ;407
0001ce  49a4              LDR      r1,|L2.1120|
0001d0  7008              STRB     r0,[r1,#0]            ;407
                  |L2.466|
0001d2  488f              LDR      r0,|L2.1040|
0001d4  7800              LDRB     r0,[r0,#0]            ;409  ; OBDCmdNum
0001d6  1c40              ADDS     r0,r0,#1              ;409
0001d8  498d              LDR      r1,|L2.1040|
0001da  7008              STRB     r0,[r1,#0]            ;409
0001dc  e75e              B        |L2.156|
                  |L2.478|
0001de  488c              LDR      r0,|L2.1040|
0001e0  7800              LDRB     r0,[r0,#0]            ;411  ; OBDCmdNum
0001e2  2807              CMP      r0,#7                 ;411
0001e4  d10f              BNE      |L2.518|
0001e6  2202              MOVS     r2,#2                 ;412
0001e8  a19c              ADR      r1,|L2.1116|
0001ea  488f              LDR      r0,|L2.1064|
0001ec  f7fffffe          BL       RMLStrcmp
0001f0  2801              CMP      r0,#1                 ;412
0001f2  d105              BNE      |L2.512|
0001f4  4886              LDR      r0,|L2.1040|
0001f6  7800              LDRB     r0,[r0,#0]            ;413  ; OBDCmdNum
0001f8  1c40              ADDS     r0,r0,#1              ;413
0001fa  4985              LDR      r1,|L2.1040|
0001fc  7008              STRB     r0,[r1,#0]            ;413
0001fe  e74d              B        |L2.156|
                  |L2.512|
000200  f7fffffe          BL       OBD_SetDiagnoseOver
000204  e74a              B        |L2.156|
                  |L2.518|
000206  4882              LDR      r0,|L2.1040|
000208  7800              LDRB     r0,[r0,#0]            ;417  ; OBDCmdNum
00020a  2808              CMP      r0,#8                 ;417
00020c  d17e              BNE      |L2.780|
00020e  2205              MOVS     r2,#5                 ;419
000210  a194              ADR      r1,|L2.1124|
000212  4885              LDR      r0,|L2.1064|
000214  f7fffffe          BL       RMLStrcmp
000218  2801              CMP      r0,#1                 ;419
00021a  d178              BNE      |L2.782|
00021c  4882              LDR      r0,|L2.1064|
00021e  7a80              LDRB     r0,[r0,#0xa]          ;420  ; OBData
000220  901a              STR      r0,[sp,#0x68]         ;420
000222  4881              LDR      r0,|L2.1064|
000224  7a40              LDRB     r0,[r0,#9]            ;420  ; OBData
000226  9019              STR      r0,[sp,#0x64]         ;420
000228  991a              LDR      r1,[sp,#0x68]         ;420
00022a  f7fffffe          BL       Obd_ASCToHex
00022e  4603              MOV      r3,r0                 ;420
000230  487d              LDR      r0,|L2.1064|
000232  79c0              LDRB     r0,[r0,#7]            ;420  ; OBData
000234  901a              STR      r0,[sp,#0x68]         ;420
000236  487c              LDR      r0,|L2.1064|
000238  7980              LDRB     r0,[r0,#6]            ;420  ; OBData
00023a  9019              STR      r0,[sp,#0x64]         ;420
00023c  991a              LDR      r1,[sp,#0x68]         ;420
00023e  f7fffffe          BL       Obd_ASCToHex
000242  eb032000          ADD      r0,r3,r0,LSL #8       ;420
000246  0880              LSRS     r0,r0,#2              ;420
000248  d061              BEQ      |L2.782|
00024a  2000              MOVS     r0,#0                 ;422
00024c  901a              STR      r0,[sp,#0x68]         ;422
00024e  4887              LDR      r0,|L2.1132|
000250  f7fffffe          BL       Timer_GetElapse
000254  901a              STR      r0,[sp,#0x68]         ;425
000256  4874              LDR      r0,|L2.1064|
000258  7a80              LDRB     r0,[r0,#0xa]          ;428  ; OBData
00025a  9019              STR      r0,[sp,#0x64]         ;428
00025c  4872              LDR      r0,|L2.1064|
00025e  7a40              LDRB     r0,[r0,#9]            ;428  ; OBData
000260  9018              STR      r0,[sp,#0x60]         ;428
000262  9919              LDR      r1,[sp,#0x64]         ;428
000264  f7fffffe          BL       Obd_ASCToHex
000268  4603              MOV      r3,r0                 ;428
00026a  486f              LDR      r0,|L2.1064|
00026c  79c0              LDRB     r0,[r0,#7]            ;428  ; OBData
00026e  9019              STR      r0,[sp,#0x64]         ;428
000270  486d              LDR      r0,|L2.1064|
000272  7980              LDRB     r0,[r0,#6]            ;428  ; OBData
000274  9018              STR      r0,[sp,#0x60]         ;428
000276  9919              LDR      r1,[sp,#0x64]         ;428
000278  f7fffffe          BL       Obd_ASCToHex
00027c  eb032000          ADD      r0,r3,r0,LSL #8       ;428
000280  f3c0018f          UBFX     r1,r0,#2,#16          ;428
000284  487a              LDR      r0,|L2.1136|
000286  8001              STRH     r1,[r0,#0]            ;428
000288  487a              LDR      r0,|L2.1140|
00028a  6801              LDR      r1,[r0,#0]            ;431  ; DrvTime
00028c  981a              LDR      r0,[sp,#0x68]         ;431
00028e  4401              ADD      r1,r1,r0              ;431
000290  4878              LDR      r0,|L2.1140|
000292  6001              STR      r1,[r0,#0]            ;431  ; DrvTime
000294  4878              LDR      r0,|L2.1144|
000296  7800              LDRB     r0,[r0,#0]            ;434  ; NowSpd
000298  4978              LDR      r1,|L2.1148|
00029a  7008              STRB     r0,[r1,#0]            ;434
00029c  981a              LDR      r0,[sp,#0x68]         ;435
00029e  f7fffffe          BL       __aeabi_ui2d
0002a2  2200              MOVS     r2,#0                 ;435
0002a4  4b76              LDR      r3,|L2.1152|
0002a6  e9cd0112          STRD     r0,r1,[sp,#0x48]      ;435
0002aa  f7fffffe          BL       __aeabi_ddiv
0002ae  e9cd0116          STRD     r0,r1,[sp,#0x58]      ;435
0002b2  4872              LDR      r0,|L2.1148|
0002b4  7800              LDRB     r0,[r0,#0]            ;435  ; LastSpd
0002b6  f7fffffe          BL       __aeabi_ui2d
0002ba  e9cd010e          STRD     r0,r1,[sp,#0x38]      ;435
0002be  486e              LDR      r0,|L2.1144|
0002c0  7800              LDRB     r0,[r0,#0]            ;435  ; NowSpd
0002c2  f7fffffe          BL       __aeabi_ui2d
0002c6  e9cd010c          STRD     r0,r1,[sp,#0x30]      ;435
0002ca  e9dd230e          LDRD     r2,r3,[sp,#0x38]      ;435
0002ce  f7fffffe          BL       __aeabi_dadd
0002d2  2200              MOVS     r2,#0                 ;435
0002d4  f04f4380          MOV      r3,#0x40000000        ;435
0002d8  e9cd0110          STRD     r0,r1,[sp,#0x40]      ;435
0002dc  f7fffffe          BL       __aeabi_ddiv
0002e0  2200              MOVS     r2,#0                 ;435
0002e2  4b68              LDR      r3,|L2.1156|
0002e4  e9cd0112          STRD     r0,r1,[sp,#0x48]      ;435
0002e8  f7fffffe          BL       __aeabi_ddiv
0002ec  e9cd0114          STRD     r0,r1,[sp,#0x50]      ;435
0002f0  e9dd2316          LDRD     r2,r3,[sp,#0x58]      ;435
0002f4  f7fffffe          BL       __aeabi_dmul
0002f8  e9cd0118          STRD     r0,r1,[sp,#0x60]      ;435
0002fc  4862              LDR      r0,|L2.1160|
0002fe  c80c              LDM      r0!,{r2,r3}           ;435
000300  9818              LDR      r0,[sp,#0x60]         ;435
000302  f7fffffe          BL       __aeabi_dadd
000306  4a60              LDR      r2,|L2.1160|
000308  c203              STM      r2!,{r0,r1}           ;435
00030a  e001              B        |L2.784|
                  |L2.780|
00030c  e315              B        |L2.2362|
                  |L2.782|
00030e  e311              B        |L2.2356|
                  |L2.784|
000310  485e              LDR      r0,|L2.1164|
000312  e9d01000          LDRD     r1,r0,[r0,#0]         ;438
000316  4a5e              LDR      r2,|L2.1168|
000318  e9c21000          STRD     r1,r0,[r2,#0]         ;438
00031c  485d              LDR      r0,|L2.1172|
00031e  6800              LDR      r0,[r0,#0]            ;440  ; FuelType
000320  b9a0              CBNZ     r0,|L2.844|
000322  4a5d              LDR      r2,|L2.1176|
000324  4b5d              LDR      r3,|L2.1180|
000326  495e              LDR      r1,|L2.1184|
000328  c903              LDM      r1,{r0,r1}            ;441
00032a  f7fffffe          BL       __aeabi_ddiv
00032e  4a5d              LDR      r2,|L2.1188|
000330  4b5d              LDR      r3,|L2.1192|
000332  e9cd0116          STRD     r0,r1,[sp,#0x58]      ;441
000336  f7fffffe          BL       __aeabi_ddiv
00033a  2200              MOVS     r2,#0                 ;441
00033c  4b50              LDR      r3,|L2.1152|
00033e  e9cd0118          STRD     r0,r1,[sp,#0x60]      ;441
000342  f7fffffe          BL       __aeabi_ddiv
000346  4a51              LDR      r2,|L2.1164|
000348  c203              STM      r2!,{r0,r1}           ;441
00034a  e025              B        |L2.920|
                  |L2.844|
00034c  4857              LDR      r0,|L2.1196|
00034e  7800              LDRB     r0,[r0,#0]            ;443  ; Load
000350  f7fffffe          BL       __aeabi_ui2d
000354  2200              MOVS     r2,#0                 ;443
000356  4b56              LDR      r3,|L2.1200|
000358  e9cd0114          STRD     r0,r1,[sp,#0x50]      ;443
00035c  f7fffffe          BL       __aeabi_ddiv
000360  4a4d              LDR      r2,|L2.1176|
000362  4b4e              LDR      r3,|L2.1180|
000364  e9cd0118          STRD     r0,r1,[sp,#0x60]      ;443
000368  494d              LDR      r1,|L2.1184|
00036a  c903              LDM      r1,{r0,r1}            ;443
00036c  f7fffffe          BL       __aeabi_ddiv
000370  4a4c              LDR      r2,|L2.1188|
000372  4b4d              LDR      r3,|L2.1192|
000374  e9cd0112          STRD     r0,r1,[sp,#0x48]      ;443
000378  f7fffffe          BL       __aeabi_ddiv
00037c  2200              MOVS     r2,#0                 ;443
00037e  4b40              LDR      r3,|L2.1152|
000380  e9cd0114          STRD     r0,r1,[sp,#0x50]      ;443
000384  f7fffffe          BL       __aeabi_ddiv
000388  e9cd0116          STRD     r0,r1,[sp,#0x58]      ;443
00038c  e9dd2318          LDRD     r2,r3,[sp,#0x60]      ;443
000390  f7fffffe          BL       __aeabi_dmul
000394  4a3d              LDR      r2,|L2.1164|
000396  c203              STM      r2!,{r0,r1}           ;443
                  |L2.920|
000398  981a              LDR      r0,[sp,#0x68]         ;446
00039a  f7fffffe          BL       __aeabi_ui2d
00039e  2200              MOVS     r2,#0                 ;446
0003a0  4b37              LDR      r3,|L2.1152|
0003a2  e9cd0112          STRD     r0,r1,[sp,#0x48]      ;446
0003a6  f7fffffe          BL       __aeabi_ddiv
0003aa  e9cd0116          STRD     r0,r1,[sp,#0x58]      ;446
0003ae  4837              LDR      r0,|L2.1164|
0003b0  4937              LDR      r1,|L2.1168|
0003b2  c80c              LDM      r0!,{r2,r3}           ;446
0003b4  c903              LDM      r1,{r0,r1}            ;446
0003b6  f7fffffe          BL       __aeabi_dadd
0003ba  2200              MOVS     r2,#0                 ;446
0003bc  f04f4380          MOV      r3,#0x40000000        ;446
0003c0  e9cd0112          STRD     r0,r1,[sp,#0x48]      ;446
0003c4  f7fffffe          BL       __aeabi_ddiv
0003c8  e9cd0114          STRD     r0,r1,[sp,#0x50]      ;446
0003cc  e9dd2316          LDRD     r2,r3,[sp,#0x58]      ;446
0003d0  f7fffffe          BL       __aeabi_dmul
0003d4  e9cd0118          STRD     r0,r1,[sp,#0x60]      ;446
0003d8  4836              LDR      r0,|L2.1204|
0003da  c80c              LDM      r0!,{r2,r3}           ;446
0003dc  9818              LDR      r0,[sp,#0x60]         ;446
0003de  f7fffffe          BL       __aeabi_dadd
0003e2  4a34              LDR      r2,|L2.1204|
0003e4  c203              STM      r2!,{r0,r1}           ;446
0003e6  4828              LDR      r0,|L2.1160|
0003e8  4932              LDR      r1,|L2.1204|
0003ea  c80c              LDM      r0!,{r2,r3}           ;447
0003ec  c903              LDM      r1,{r0,r1}            ;447
0003ee  f7fffffe          BL       __aeabi_ddiv
0003f2  2200              MOVS     r2,#0                 ;447
0003f4  4b2e              LDR      r3,|L2.1200|
0003f6  e9cd0114          STRD     r0,r1,[sp,#0x50]      ;447
0003fa  f7fffffe          BL       __aeabi_dmul
0003fe  e05b              B        |L2.1208|
                  |L2.1024|
                          DCD      OBDTaskOver
                  |L2.1028|
                          DCD      OBDOpenPowerTim
                  |L2.1032|
                          DCD      OBDCom
                  |L2.1036|
                          DCD      OBDCMD
                  |L2.1040|
                          DCD      OBDCmdNum
                  |L2.1044|
                          DCD      OBDUartTim
                  |L2.1048|
                          DCD      OBData_bAvail
                  |L2.1052|
00041c  41545350          DCB      "ATSP0\rOK",0
000420  300d4f4b
000424  00      
000425  00                DCB      0
000426  00                DCB      0
000427  00                DCB      0
                  |L2.1064|
                          DCD      OBData
                  |L2.1068|
00042c  41545354          DCB      "ATST4B\rOK",0
000430  34420d4f
000434  4b00    
000436  00                DCB      0
000437  00                DCB      0
                  |L2.1080|
000438  41544530          DCB      "ATE0\rOK",0
00043c  0d4f4b00
                  |L2.1088|
000440  53454152          DCB      "SEARCHING...\r41 0C",0
000444  4348494e
000448  472e2e2e
00044c  0d343120
000450  304300  
000453  00                DCB      0
                  |L2.1108|
                          DCD      OBDSta
                  |L2.1112|
                          DCD      OBDPro
                  |L2.1116|
00045c  4f4b00            DCB      "OK",0
00045f  00                DCB      0
                  |L2.1120|
                          DCD      DTCNum
                  |L2.1124|
000464  34312030          DCB      "41 0C",0
000468  4300    
00046a  00                DCB      0
00046b  00                DCB      0
                  |L2.1132|
                          DCD      OBD_CarDrvTim
                  |L2.1136|
                          DCD      ||RPM||
                  |L2.1140|
                          DCD      DrvTime
                  |L2.1144|
                          DCD      NowSpd
                  |L2.1148|
                          DCD      LastSpd
                  |L2.1152|
                          DCD      0x408f4000
                  |L2.1156|
                          DCD      0x40ac2000
                  |L2.1160|
                          DCD      ||Km||
                  |L2.1164|
                          DCD      NowCurrentFuel_One
                  |L2.1168|
                          DCD      LastCurrentFuel_One
                  |L2.1172|
                          DCD      FuelType
                  |L2.1176|
                          DCD      0x147ae148
                  |L2.1180|
                          DCD      0x402d47ae
                  |L2.1184|
                          DCD      MAF
                  |L2.1188|
                          DCD      0xae147ae1
                  |L2.1192|
                          DCD      0x3feae147
                  |L2.1196|
                          DCD      Load
                  |L2.1200|
                          DCD      0x40590000
                  |L2.1204|
                          DCD      Fuel_One
                  |L2.1208|
0004b8  2200              MOVS     r2,#0                 ;447
0004ba  4bfd              LDR      r3,|L2.2224|
0004bc  e9cd0116          STRD     r0,r1,[sp,#0x58]      ;447
0004c0  f7fffffe          BL       __aeabi_dmul
0004c4  e9cd0118          STRD     r0,r1,[sp,#0x60]      ;447
0004c8  f7fffffe          BL       __aeabi_d2uiz
0004cc  b281              UXTH     r1,r0                 ;447
0004ce  48f9              LDR      r0,|L2.2228|
0004d0  8001              STRH     r1,[r0,#0]            ;447
0004d2  49f9              LDR      r1,|L2.2232|
0004d4  c903              LDM      r1,{r0,r1}            ;450
0004d6  4af9              LDR      r2,|L2.2236|
0004d8  c203              STM      r2!,{r0,r1}           ;450
0004da  48f9              LDR      r0,|L2.2240|
0004dc  6800              LDR      r0,[r0,#0]            ;452  ; FuelType
0004de  bbe8              CBNZ     r0,|L2.1372|
0004e0  48f8              LDR      r0,|L2.2244|
0004e2  8800              LDRH     r0,[r0,#0]            ;453  ; RPM
0004e4  f7fffffe          BL       __aeabi_ui2d
0004e8  e9cd0110          STRD     r0,r1,[sp,#0x40]      ;453
0004ec  48f6              LDR      r0,|L2.2248|
0004ee  7800              LDRB     r0,[r0,#0]            ;453  ; ALD
0004f0  f7fffffe          BL       __aeabi_ui2d
0004f4  e9cd010a          STRD     r0,r1,[sp,#0x28]      ;453
0004f8  48f4              LDR      r0,|L2.2252|
0004fa  c80c              LDM      r0!,{r2,r3}           ;453
0004fc  48f4              LDR      r0,|L2.2256|
0004fe  49f5              LDR      r1,|L2.2260|
000500  f7fffffe          BL       __aeabi_dmul
000504  e9cd0108          STRD     r0,r1,[sp,#0x20]      ;453
000508  e9dd230a          LDRD     r2,r3,[sp,#0x28]      ;453
00050c  f7fffffe          BL       __aeabi_dmul
000510  2200              MOVS     r2,#0                 ;453
000512  4bf1              LDR      r3,|L2.2264|
000514  e9cd010c          STRD     r0,r1,[sp,#0x30]      ;453
000518  f7fffffe          BL       __aeabi_ddiv
00051c  e9cd010e          STRD     r0,r1,[sp,#0x38]      ;453
000520  e9dd2310          LDRD     r2,r3,[sp,#0x40]      ;453
000524  f7fffffe          BL       __aeabi_dmul
000528  2200              MOVS     r2,#0                 ;453
00052a  4bec              LDR      r3,|L2.2268|
00052c  e9cd0112          STRD     r0,r1,[sp,#0x48]      ;453
000530  f7fffffe          BL       __aeabi_ddiv
000534  4aea              LDR      r2,|L2.2272|
000536  4beb              LDR      r3,|L2.2276|
000538  e9cd0114          STRD     r0,r1,[sp,#0x50]      ;453
00053c  f7fffffe          BL       __aeabi_ddiv
000540  4ae9              LDR      r2,|L2.2280|
000542  4bea              LDR      r3,|L2.2284|
000544  e9cd0116          STRD     r0,r1,[sp,#0x58]      ;453
000548  f7fffffe          BL       __aeabi_ddiv
00054c  2200              MOVS     r2,#0                 ;453
00054e  4be8              LDR      r3,|L2.2288|
000550  e9cd0118          STRD     r0,r1,[sp,#0x60]      ;453
000554  f7fffffe          BL       __aeabi_ddiv
000558  4ad7              LDR      r2,|L2.2232|
00055a  e000              B        |L2.1374|
                  |L2.1372|
00055c  e001              B        |L2.1378|
                  |L2.1374|
00055e  c203              STM      r2!,{r0,r1}           ;453
000560  e04f              B        |L2.1538|
                  |L2.1378|
000562  48e4              LDR      r0,|L2.2292|
000564  7800              LDRB     r0,[r0,#0]            ;456  ; Load
000566  f7fffffe          BL       __aeabi_ui2d
00056a  2200              MOVS     r2,#0                 ;456
00056c  4bda              LDR      r3,|L2.2264|
00056e  e9cd0114          STRD     r0,r1,[sp,#0x50]      ;456
000572  f7fffffe          BL       __aeabi_ddiv
000576  e9cd0118          STRD     r0,r1,[sp,#0x60]      ;456
00057a  48d2              LDR      r0,|L2.2244|
00057c  8800              LDRH     r0,[r0,#0]            ;456  ; RPM
00057e  f7fffffe          BL       __aeabi_ui2d
000582  e9cd010c          STRD     r0,r1,[sp,#0x30]      ;456
000586  48d0              LDR      r0,|L2.2248|
000588  7800              LDRB     r0,[r0,#0]            ;456  ; ALD
00058a  f7fffffe          BL       __aeabi_ui2d
00058e  e9cd0106          STRD     r0,r1,[sp,#0x18]      ;456
000592  48ce              LDR      r0,|L2.2252|
000594  c80c              LDM      r0!,{r2,r3}           ;456
000596  48ce              LDR      r0,|L2.2256|
000598  49ce              LDR      r1,|L2.2260|
00059a  f7fffffe          BL       __aeabi_dmul
00059e  e9cd0104          STRD     r0,r1,[sp,#0x10]      ;456
0005a2  e9dd2306          LDRD     r2,r3,[sp,#0x18]      ;456
0005a6  f7fffffe          BL       __aeabi_dmul
0005aa  2200              MOVS     r2,#0                 ;456
0005ac  4bca              LDR      r3,|L2.2264|
0005ae  e9cd0108          STRD     r0,r1,[sp,#0x20]      ;456
0005b2  f7fffffe          BL       __aeabi_ddiv
0005b6  e9cd010a          STRD     r0,r1,[sp,#0x28]      ;456
0005ba  e9dd230c          LDRD     r2,r3,[sp,#0x30]      ;456
0005be  f7fffffe          BL       __aeabi_dmul
0005c2  2200              MOVS     r2,#0                 ;456
0005c4  4bc5              LDR      r3,|L2.2268|
0005c6  e9cd010e          STRD     r0,r1,[sp,#0x38]      ;456
0005ca  f7fffffe          BL       __aeabi_ddiv
0005ce  4ac4              LDR      r2,|L2.2272|
0005d0  4bc4              LDR      r3,|L2.2276|
0005d2  e9cd0110          STRD     r0,r1,[sp,#0x40]      ;456
0005d6  f7fffffe          BL       __aeabi_ddiv
0005da  4ac3              LDR      r2,|L2.2280|
0005dc  4bc3              LDR      r3,|L2.2284|
0005de  e9cd0112          STRD     r0,r1,[sp,#0x48]      ;456
0005e2  f7fffffe          BL       __aeabi_ddiv
0005e6  2200              MOVS     r2,#0                 ;456
0005e8  4bc1              LDR      r3,|L2.2288|
0005ea  e9cd0114          STRD     r0,r1,[sp,#0x50]      ;456
0005ee  f7fffffe          BL       __aeabi_ddiv
0005f2  e9cd0116          STRD     r0,r1,[sp,#0x58]      ;456
0005f6  e9dd2318          LDRD     r2,r3,[sp,#0x60]      ;456
0005fa  f7fffffe          BL       __aeabi_dmul
0005fe  4aae              LDR      r2,|L2.2232|
000600  c203              STM      r2!,{r0,r1}           ;456
                  |L2.1538|
000602  981a              LDR      r0,[sp,#0x68]         ;459
000604  f7fffffe          BL       __aeabi_ui2d
000608  2200              MOVS     r2,#0                 ;459
00060a  4bb9              LDR      r3,|L2.2288|
00060c  e9cd0112          STRD     r0,r1,[sp,#0x48]      ;459
000610  f7fffffe          BL       __aeabi_ddiv
000614  e9cd0116          STRD     r0,r1,[sp,#0x58]      ;459
000618  48a7              LDR      r0,|L2.2232|
00061a  49a8              LDR      r1,|L2.2236|
00061c  c80c              LDM      r0!,{r2,r3}           ;459
00061e  c903              LDM      r1,{r0,r1}            ;459
000620  f7fffffe          BL       __aeabi_dadd
000624  2200              MOVS     r2,#0                 ;459
000626  f04f4380          MOV      r3,#0x40000000        ;459
00062a  e9cd0112          STRD     r0,r1,[sp,#0x48]      ;459
00062e  f7fffffe          BL       __aeabi_ddiv
000632  e9cd0114          STRD     r0,r1,[sp,#0x50]      ;459
000636  e9dd2316          LDRD     r2,r3,[sp,#0x58]      ;459
00063a  f7fffffe          BL       __aeabi_dmul
00063e  e9cd0118          STRD     r0,r1,[sp,#0x60]      ;459
000642  48ad              LDR      r0,|L2.2296|
000644  c80c              LDM      r0!,{r2,r3}           ;459
000646  9818              LDR      r0,[sp,#0x60]         ;459
000648  f7fffffe          BL       __aeabi_dadd
00064c  4aaa              LDR      r2,|L2.2296|
00064e  c203              STM      r2!,{r0,r1}           ;459
000650  48aa              LDR      r0,|L2.2300|
000652  49a9              LDR      r1,|L2.2296|
000654  c80c              LDM      r0!,{r2,r3}           ;460
000656  c903              LDM      r1,{r0,r1}            ;460
000658  f7fffffe          BL       __aeabi_ddiv
00065c  2200              MOVS     r2,#0                 ;460
00065e  4b9e              LDR      r3,|L2.2264|
000660  e9cd0114          STRD     r0,r1,[sp,#0x50]      ;460
000664  f7fffffe          BL       __aeabi_dmul
000668  2200              MOVS     r2,#0                 ;460
00066a  4b91              LDR      r3,|L2.2224|
00066c  e9cd0116          STRD     r0,r1,[sp,#0x58]      ;460
000670  f7fffffe          BL       __aeabi_dmul
000674  e9cd0118          STRD     r0,r1,[sp,#0x60]      ;460
000678  f7fffffe          BL       __aeabi_d2uiz
00067c  49a0              LDR      r1,|L2.2304|
00067e  8008              STRH     r0,[r1,#0]            ;460
000680  48a0              LDR      r0,|L2.2308|
000682  7800              LDRB     r0,[r0,#0]            ;463  ; MAP
000684  2800              CMP      r0,#0                 ;463
                  |L2.1670|
000686  d07c              BEQ      |L2.1922|
000688  489f              LDR      r0,|L2.2312|
00068a  8800              LDRH     r0,[r0,#0]            ;463  ; IAT
00068c  2800              CMP      r0,#0                 ;463
00068e  d0fa              BEQ      |L2.1670|
000690  489e              LDR      r0,|L2.2316|
000692  e9d01000          LDRD     r1,r0,[r0,#0]         ;464
000696  4a9e              LDR      r2,|L2.2320|
000698  e9c21000          STRD     r1,r0,[r2,#0]         ;464
00069c  4888              LDR      r0,|L2.2240|
00069e  6800              LDR      r0,[r0,#0]            ;466  ; FuelType
0006a0  bbf0              CBNZ     r0,|L2.1824|
0006a2  4888              LDR      r0,|L2.2244|
0006a4  8800              LDRH     r0,[r0,#0]            ;467  ; RPM
0006a6  f7fffffe          BL       __aeabi_ui2d
0006aa  2200              MOVS     r2,#0                 ;467
0006ac  4b8b              LDR      r3,|L2.2268|
0006ae  e9cd010a          STRD     r0,r1,[sp,#0x28]      ;467
0006b2  f7fffffe          BL       __aeabi_ddiv
0006b6  e9cd010e          STRD     r0,r1,[sp,#0x38]      ;467
0006ba  4893              LDR      r0,|L2.2312|
0006bc  f9b00000          LDRSH    r0,[r0,#0]            ;467  ; IAT
0006c0  f7fffffe          BL       __aeabi_i2d
0006c4  f04f3266          MOV      r2,#0x66666666        ;467
0006c8  4b92              LDR      r3,|L2.2324|
0006ca  e9cd0104          STRD     r0,r1,[sp,#0x10]      ;467
0006ce  f7fffffe          BL       __aeabi_dadd
0006d2  e9cd0108          STRD     r0,r1,[sp,#0x20]      ;467
0006d6  488b              LDR      r0,|L2.2308|
0006d8  7800              LDRB     r0,[r0,#0]            ;467  ; MAP
0006da  f7fffffe          BL       __aeabi_ui2d
0006de  e9cd0106          STRD     r0,r1,[sp,#0x18]      ;467
0006e2  e9dd2308          LDRD     r2,r3,[sp,#0x20]      ;467
0006e6  f7fffffe          BL       __aeabi_ddiv
0006ea  4a8b              LDR      r2,|L2.2328|
0006ec  4b8b              LDR      r3,|L2.2332|
0006ee  e9cd010a          STRD     r0,r1,[sp,#0x28]      ;467
0006f2  f7fffffe          BL       __aeabi_dmul
0006f6  e9cd010c          STRD     r0,r1,[sp,#0x30]      ;467
0006fa  e9dd230e          LDRD     r2,r3,[sp,#0x38]      ;467
0006fe  f7fffffe          BL       __aeabi_dmul
000702  e9cd0110          STRD     r0,r1,[sp,#0x40]      ;467
000706  4871              LDR      r0,|L2.2252|
000708  c80c              LDM      r0!,{r2,r3}           ;467
00070a  9810              LDR      r0,[sp,#0x40]         ;467
00070c  f7fffffe          BL       __aeabi_dmul
000710  2200              MOVS     r2,#0                 ;467
000712  4b83              LDR      r3,|L2.2336|
000714  e9cd0112          STRD     r0,r1,[sp,#0x48]      ;467
000718  f7fffffe          BL       __aeabi_dmul
00071c  4a70              LDR      r2,|L2.2272|
00071e  e000              B        |L2.1826|
                  |L2.1824|
000720  e013              B        |L2.1866|
                  |L2.1826|
000722  4b70              LDR      r3,|L2.2276|
000724  e9cd0114          STRD     r0,r1,[sp,#0x50]      ;467
000728  f7fffffe          BL       __aeabi_ddiv
00072c  4a6e              LDR      r2,|L2.2280|
00072e  4b6f              LDR      r3,|L2.2284|
000730  e9cd0116          STRD     r0,r1,[sp,#0x58]      ;467
000734  f7fffffe          BL       __aeabi_ddiv
000738  2200              MOVS     r2,#0                 ;467
00073a  4b6d              LDR      r3,|L2.2288|
00073c  e9cd0118          STRD     r0,r1,[sp,#0x60]      ;467
000740  f7fffffe          BL       __aeabi_ddiv
000744  4a71              LDR      r2,|L2.2316|
000746  c203              STM      r2!,{r0,r1}           ;467
000748  e064              B        |L2.2068|
                  |L2.1866|
00074a  486a              LDR      r0,|L2.2292|
00074c  7800              LDRB     r0,[r0,#0]            ;470  ; Load
00074e  f7fffffe          BL       __aeabi_ui2d
000752  2200              MOVS     r2,#0                 ;470
000754  4b60              LDR      r3,|L2.2264|
000756  e9cd0114          STRD     r0,r1,[sp,#0x50]      ;470
00075a  f7fffffe          BL       __aeabi_ddiv
00075e  e9cd0118          STRD     r0,r1,[sp,#0x60]      ;470
000762  4858              LDR      r0,|L2.2244|
000764  8800              LDRH     r0,[r0,#0]            ;470  ; RPM
000766  f7fffffe          BL       __aeabi_ui2d
00076a  2200              MOVS     r2,#0                 ;470
00076c  4b5b              LDR      r3,|L2.2268|
00076e  e9cd0106          STRD     r0,r1,[sp,#0x18]      ;470
000772  f7fffffe          BL       __aeabi_ddiv
000776  e9cd010a          STRD     r0,r1,[sp,#0x28]      ;470
00077a  4863              LDR      r0,|L2.2312|
00077c  f9b00000          LDRSH    r0,[r0,#0]            ;470  ; IAT
000780  e000              B        |L2.1924|
                  |L2.1922|
000782  e088              B        |L2.2198|
                  |L2.1924|
000784  f7fffffe          BL       __aeabi_i2d
000788  f04f3266          MOV      r2,#0x66666666        ;470
00078c  4b61              LDR      r3,|L2.2324|
00078e  e9cd0100          STRD     r0,r1,[sp,#0]         ;470
000792  f7fffffe          BL       __aeabi_dadd
000796  e9cd0104          STRD     r0,r1,[sp,#0x10]      ;470
00079a  485a              LDR      r0,|L2.2308|
00079c  7800              LDRB     r0,[r0,#0]            ;470  ; MAP
00079e  f7fffffe          BL       __aeabi_ui2d
0007a2  e9cd0102          STRD     r0,r1,[sp,#8]         ;470
0007a6  e9dd2304          LDRD     r2,r3,[sp,#0x10]      ;470
0007aa  f7fffffe          BL       __aeabi_ddiv
0007ae  4a5a              LDR      r2,|L2.2328|
0007b0  4b5a              LDR      r3,|L2.2332|
0007b2  e9cd0106          STRD     r0,r1,[sp,#0x18]      ;470
0007b6  f7fffffe          BL       __aeabi_dmul
0007ba  e9cd0108          STRD     r0,r1,[sp,#0x20]      ;470
0007be  e9dd230a          LDRD     r2,r3,[sp,#0x28]      ;470
0007c2  f7fffffe          BL       __aeabi_dmul
0007c6  e9cd010c          STRD     r0,r1,[sp,#0x30]      ;470
0007ca  4840              LDR      r0,|L2.2252|
0007cc  c80c              LDM      r0!,{r2,r3}           ;470
0007ce  980c              LDR      r0,[sp,#0x30]         ;470
0007d0  f7fffffe          BL       __aeabi_dmul
0007d4  2200              MOVS     r2,#0                 ;470
0007d6  4b52              LDR      r3,|L2.2336|
0007d8  e9cd010e          STRD     r0,r1,[sp,#0x38]      ;470
0007dc  f7fffffe          BL       __aeabi_dmul
0007e0  4a3f              LDR      r2,|L2.2272|
0007e2  4b40              LDR      r3,|L2.2276|
0007e4  e9cd0110          STRD     r0,r1,[sp,#0x40]      ;470
0007e8  f7fffffe          BL       __aeabi_ddiv
0007ec  4a3e              LDR      r2,|L2.2280|
0007ee  4b3f              LDR      r3,|L2.2284|
0007f0  e9cd0112          STRD     r0,r1,[sp,#0x48]      ;470
0007f4  f7fffffe          BL       __aeabi_ddiv
0007f8  2200              MOVS     r2,#0                 ;470
0007fa  4b3d              LDR      r3,|L2.2288|
0007fc  e9cd0114          STRD     r0,r1,[sp,#0x50]      ;470
000800  f7fffffe          BL       __aeabi_ddiv
000804  e9cd0116          STRD     r0,r1,[sp,#0x58]      ;470
000808  e9dd2318          LDRD     r2,r3,[sp,#0x60]      ;470
00080c  f7fffffe          BL       __aeabi_dmul
000810  4a3e              LDR      r2,|L2.2316|
000812  c203              STM      r2!,{r0,r1}           ;470
                  |L2.2068|
000814  981a              LDR      r0,[sp,#0x68]         ;473
000816  f7fffffe          BL       __aeabi_ui2d
00081a  2200              MOVS     r2,#0                 ;473
00081c  4b34              LDR      r3,|L2.2288|
00081e  e9cd0112          STRD     r0,r1,[sp,#0x48]      ;473
000822  f7fffffe          BL       __aeabi_ddiv
000826  e9cd0116          STRD     r0,r1,[sp,#0x58]      ;473
00082a  4838              LDR      r0,|L2.2316|
00082c  4938              LDR      r1,|L2.2320|
00082e  c80c              LDM      r0!,{r2,r3}           ;473
000830  c903              LDM      r1,{r0,r1}            ;473
000832  f7fffffe          BL       __aeabi_dadd
000836  2200              MOVS     r2,#0                 ;473
000838  f04f4380          MOV      r3,#0x40000000        ;473
00083c  e9cd0112          STRD     r0,r1,[sp,#0x48]      ;473
000840  f7fffffe          BL       __aeabi_ddiv
000844  e9cd0114          STRD     r0,r1,[sp,#0x50]      ;473
000848  e9dd2316          LDRD     r2,r3,[sp,#0x58]      ;473
00084c  f7fffffe          BL       __aeabi_dmul
000850  e9cd0118          STRD     r0,r1,[sp,#0x60]      ;473
000854  4833              LDR      r0,|L2.2340|
000856  c80c              LDM      r0!,{r2,r3}           ;473
000858  9818              LDR      r0,[sp,#0x60]         ;473
00085a  e000              B        |L2.2142|
                  |L2.2140|
00085c  e162              B        |L2.2852|
                  |L2.2142|
00085e  f7fffffe          BL       __aeabi_dadd
000862  4a30              LDR      r2,|L2.2340|
000864  c203              STM      r2!,{r0,r1}           ;473
000866  4825              LDR      r0,|L2.2300|
000868  492e              LDR      r1,|L2.2340|
00086a  c80c              LDM      r0!,{r2,r3}           ;474
00086c  c903              LDM      r1,{r0,r1}            ;474
00086e  f7fffffe          BL       __aeabi_ddiv
000872  2200              MOVS     r2,#0                 ;474
000874  4b18              LDR      r3,|L2.2264|
000876  e9cd0114          STRD     r0,r1,[sp,#0x50]      ;474
00087a  f7fffffe          BL       __aeabi_dmul
00087e  2200              MOVS     r2,#0                 ;474
000880  4b0b              LDR      r3,|L2.2224|
000882  e9cd0116          STRD     r0,r1,[sp,#0x58]      ;474
000886  f7fffffe          BL       __aeabi_dmul
00088a  e9cd0118          STRD     r0,r1,[sp,#0x60]      ;474
00088e  f7fffffe          BL       __aeabi_d2uiz
000892  4925              LDR      r1,|L2.2344|
000894  8008              STRH     r0,[r1,#0]            ;474
                  |L2.2198|
000896  4825              LDR      r0,|L2.2348|
000898  e000              B        |L2.2204|
                  |L2.2202|
00089a  e13e              B        |L2.2842|
                  |L2.2204|
00089c  f7fffffe          BL       Timer_Reset
0008a0  4823              LDR      r0,|L2.2352|
0008a2  7800              LDRB     r0,[r0,#0]            ;477  ; OBDCmdNum
0008a4  1c40              ADDS     r0,r0,#1              ;477
0008a6  b2c1              UXTB     r1,r0                 ;477
0008a8  4821              LDR      r0,|L2.2352|
0008aa  7001              STRB     r1,[r0,#0]            ;477
0008ac  e135              B        |L2.2842|
                  |L2.2222|
0008ae  e138              B        |L2.2850|
                  |L2.2224|
                          DCD      0x40240000
                  |L2.2228|
                          DCD      NowAverageFuelFlow_One
                  |L2.2232|
                          DCD      NowCurrentFuel_Two
                  |L2.2236|
                          DCD      LastCurrentFuel_Two
                  |L2.2240|
                          DCD      FuelType
                  |L2.2244|
                          DCD      ||RPM||
                  |L2.2248|
                          DCD      ALD
                  |L2.2252|
                          DCD      EngineDisplayment
                  |L2.2256|
                          DCD      0xfbe76c8b
                  |L2.2260|
                          DCD      0x3ff2f1a9
                  |L2.2264|
                          DCD      0x40590000
                  |L2.2268|
                          DCD      0x405e0000
                  |L2.2272|
                          DCD      0x147ae148
                  |L2.2276|
                          DCD      0x402d47ae
                  |L2.2280|
                          DCD      0xae147ae1
                  |L2.2284|
                          DCD      0x3feae147
                  |L2.2288|
                          DCD      0x408f4000
                  |L2.2292|
                          DCD      Load
                  |L2.2296|
                          DCD      Fuel_Two
                  |L2.2300|
                          DCD      ||Km||
                  |L2.2304|
                          DCD      NowAverageFuelFlow_Two
                  |L2.2308|
                          DCD      MAP
                  |L2.2312|
                          DCD      IAT
                  |L2.2316|
                          DCD      NowCurrentFuel_Three
                  |L2.2320|
                          DCD      LastCurrentFuel_Three
                  |L2.2324|
                          DCD      0x40711266
                  |L2.2328|
                          DCD      0x0013b490
                  |L2.2332|
                          DCD      0x400be72f
                  |L2.2336|
                          DCD      0x3fe80000
                  |L2.2340|
                          DCD      Fuel_Three
                  |L2.2344|
                          DCD      NowAverageFuelFlow_Three
                  |L2.2348|
                          DCD      OBD_CarDrvTim
                  |L2.2352|
                          DCD      OBDCmdNum
                  |L2.2356|
000934  f7fffffe          BL       OBD_SetDiagnoseOver
000938  e0ef              B        |L2.2842|
                  |L2.2362|
00093a  487c              LDR      r0,|L2.2860|
00093c  7800              LDRB     r0,[r0,#0]            ;482  ; OBDCmdNum
00093e  2809              CMP      r0,#9                 ;482
000940  d117              BNE      |L2.2418|
000942  2205              MOVS     r2,#5                 ;484
000944  a17a              ADR      r1,|L2.2864|
000946  487c              LDR      r0,|L2.2872|
000948  f7fffffe          BL       RMLStrcmp
00094c  2801              CMP      r0,#1                 ;484
00094e  d10a              BNE      |L2.2406|
000950  4879              LDR      r0,|L2.2872|
000952  79c0              LDRB     r0,[r0,#7]            ;485  ; OBData
000954  901a              STR      r0,[sp,#0x68]         ;485
000956  4878              LDR      r0,|L2.2872|
000958  7980              LDRB     r0,[r0,#6]            ;485  ; OBData
00095a  9019              STR      r0,[sp,#0x64]         ;485
00095c  991a              LDR      r1,[sp,#0x68]         ;485
00095e  f7fffffe          BL       Obd_ASCToHex
000962  4976              LDR      r1,|L2.2876|
000964  7008              STRB     r0,[r1,#0]            ;485
                  |L2.2406|
000966  4871              LDR      r0,|L2.2860|
000968  7800              LDRB     r0,[r0,#0]            ;487  ; OBDCmdNum
00096a  1c40              ADDS     r0,r0,#1              ;487
00096c  496f              LDR      r1,|L2.2860|
00096e  7008              STRB     r0,[r1,#0]            ;487
000970  e0d3              B        |L2.2842|
                  |L2.2418|
000972  486e              LDR      r0,|L2.2860|
000974  7800              LDRB     r0,[r0,#0]            ;488  ; OBDCmdNum
000976  280a              CMP      r0,#0xa               ;488
000978  d11c              BNE      |L2.2484|
00097a  2205              MOVS     r2,#5                 ;490
00097c  a170              ADR      r1,|L2.2880|
00097e  486e              LDR      r0,|L2.2872|
000980  f7fffffe          BL       RMLStrcmp
000984  2801              CMP      r0,#1                 ;490
000986  d10f              BNE      |L2.2472|
000988  486b              LDR      r0,|L2.2872|
00098a  79c0              LDRB     r0,[r0,#7]            ;491  ; OBData
00098c  901a              STR      r0,[sp,#0x68]         ;491
00098e  486a              LDR      r0,|L2.2872|
000990  7980              LDRB     r0,[r0,#6]            ;491  ; OBData
000992  9019              STR      r0,[sp,#0x64]         ;491
000994  991a              LDR      r1,[sp,#0x68]         ;491
000996  f7fffffe          BL       Obd_ASCToHex
00099a  2164              MOVS     r1,#0x64              ;491
00099c  4348              MULS     r0,r1,r0              ;491
00099e  21ff              MOVS     r1,#0xff              ;491
0009a0  fbb0f0f1          UDIV     r0,r0,r1              ;491
0009a4  4968              LDR      r1,|L2.2888|
0009a6  7008              STRB     r0,[r1,#0]            ;491
                  |L2.2472|
0009a8  4860              LDR      r0,|L2.2860|
0009aa  7800              LDRB     r0,[r0,#0]            ;493  ; OBDCmdNum
0009ac  1c40              ADDS     r0,r0,#1              ;493
0009ae  495f              LDR      r1,|L2.2860|
0009b0  7008              STRB     r0,[r1,#0]            ;493
0009b2  e0b2              B        |L2.2842|
                  |L2.2484|
0009b4  485d              LDR      r0,|L2.2860|
0009b6  7800              LDRB     r0,[r0,#0]            ;494  ; OBDCmdNum
0009b8  280b              CMP      r0,#0xb               ;494
0009ba  d119              BNE      |L2.2544|
0009bc  2205              MOVS     r2,#5                 ;496
0009be  a163              ADR      r1,|L2.2892|
0009c0  485d              LDR      r0,|L2.2872|
0009c2  f7fffffe          BL       RMLStrcmp
0009c6  2801              CMP      r0,#1                 ;496
0009c8  d10c              BNE      |L2.2532|
0009ca  485b              LDR      r0,|L2.2872|
0009cc  79c0              LDRB     r0,[r0,#7]            ;497  ; OBData
0009ce  901a              STR      r0,[sp,#0x68]         ;497
0009d0  4859              LDR      r0,|L2.2872|
0009d2  7980              LDRB     r0,[r0,#6]            ;497  ; OBData
0009d4  9019              STR      r0,[sp,#0x64]         ;497
0009d6  991a              LDR      r1,[sp,#0x68]         ;497
0009d8  f7fffffe          BL       Obd_ASCToHex
0009dc  3828              SUBS     r0,r0,#0x28           ;497
0009de  b200              SXTH     r0,r0                 ;497
0009e0  495c              LDR      r1,|L2.2900|
0009e2  8008              STRH     r0,[r1,#0]            ;497
                  |L2.2532|
0009e4  4851              LDR      r0,|L2.2860|
0009e6  7800              LDRB     r0,[r0,#0]            ;499  ; OBDCmdNum
0009e8  1c40              ADDS     r0,r0,#1              ;499
0009ea  4950              LDR      r1,|L2.2860|
0009ec  7008              STRB     r0,[r1,#0]            ;499
0009ee  e094              B        |L2.2842|
                  |L2.2544|
0009f0  484e              LDR      r0,|L2.2860|
0009f2  7800              LDRB     r0,[r0,#0]            ;500  ; OBDCmdNum
0009f4  280c              CMP      r0,#0xc               ;500
0009f6  d117              BNE      |L2.2600|
0009f8  2205              MOVS     r2,#5                 ;502
0009fa  a157              ADR      r1,|L2.2904|
0009fc  484e              LDR      r0,|L2.2872|
0009fe  f7fffffe          BL       RMLStrcmp
000a02  2801              CMP      r0,#1                 ;502
000a04  d10a              BNE      |L2.2588|
000a06  484c              LDR      r0,|L2.2872|
000a08  79c0              LDRB     r0,[r0,#7]            ;503  ; OBData
000a0a  901a              STR      r0,[sp,#0x68]         ;503
000a0c  484a              LDR      r0,|L2.2872|
000a0e  7980              LDRB     r0,[r0,#6]            ;503  ; OBData
000a10  9019              STR      r0,[sp,#0x64]         ;503
000a12  991a              LDR      r1,[sp,#0x68]         ;503
000a14  f7fffffe          BL       Obd_ASCToHex
000a18  4951              LDR      r1,|L2.2912|
000a1a  7008              STRB     r0,[r1,#0]            ;503
                  |L2.2588|
000a1c  4843              LDR      r0,|L2.2860|
000a1e  7800              LDRB     r0,[r0,#0]            ;505  ; OBDCmdNum
000a20  1c40              ADDS     r0,r0,#1              ;505
000a22  4942              LDR      r1,|L2.2860|
000a24  7008              STRB     r0,[r1,#0]            ;505
000a26  e078              B        |L2.2842|
                  |L2.2600|
000a28  4840              LDR      r0,|L2.2860|
000a2a  7800              LDRB     r0,[r0,#0]            ;506  ; OBDCmdNum
000a2c  280d              CMP      r0,#0xd               ;506
000a2e  d119              BNE      |L2.2660|
000a30  2205              MOVS     r2,#5                 ;508
000a32  a14c              ADR      r1,|L2.2916|
000a34  4840              LDR      r0,|L2.2872|
000a36  f7fffffe          BL       RMLStrcmp
000a3a  2801              CMP      r0,#1                 ;508
000a3c  d10c              BNE      |L2.2648|
000a3e  483e              LDR      r0,|L2.2872|
000a40  79c0              LDRB     r0,[r0,#7]            ;509  ; OBData
000a42  901a              STR      r0,[sp,#0x68]         ;509
000a44  483c              LDR      r0,|L2.2872|
000a46  7980              LDRB     r0,[r0,#6]            ;509  ; OBData
000a48  9019              STR      r0,[sp,#0x64]         ;509
000a4a  991a              LDR      r1,[sp,#0x68]         ;509
000a4c  f7fffffe          BL       Obd_ASCToHex
000a50  3828              SUBS     r0,r0,#0x28           ;509
000a52  b200              SXTH     r0,r0                 ;509
000a54  4945              LDR      r1,|L2.2924|
000a56  8008              STRH     r0,[r1,#0]            ;509
                  |L2.2648|
000a58  4834              LDR      r0,|L2.2860|
000a5a  7800              LDRB     r0,[r0,#0]            ;511  ; OBDCmdNum
000a5c  1c40              ADDS     r0,r0,#1              ;511
000a5e  4933              LDR      r1,|L2.2860|
000a60  7008              STRB     r0,[r1,#0]            ;511
000a62  e05a              B        |L2.2842|
                  |L2.2660|
000a64  4831              LDR      r0,|L2.2860|
000a66  7800              LDRB     r0,[r0,#0]            ;512  ; OBDCmdNum
000a68  280e              CMP      r0,#0xe               ;512
000a6a  d12c              BNE      |L2.2758|
000a6c  2205              MOVS     r2,#5                 ;514
000a6e  a140              ADR      r1,|L2.2928|
000a70  4831              LDR      r0,|L2.2872|
000a72  f7fffffe          BL       RMLStrcmp
000a76  2801              CMP      r0,#1                 ;514
000a78  d11f              BNE      |L2.2746|
000a7a  482f              LDR      r0,|L2.2872|
000a7c  7a80              LDRB     r0,[r0,#0xa]          ;515  ; OBData
000a7e  9016              STR      r0,[sp,#0x58]         ;515
000a80  482d              LDR      r0,|L2.2872|
000a82  7a40              LDRB     r0,[r0,#9]            ;515  ; OBData
000a84  9015              STR      r0,[sp,#0x54]         ;515
000a86  9916              LDR      r1,[sp,#0x58]         ;515
000a88  f7fffffe          BL       Obd_ASCToHex
000a8c  4603              MOV      r3,r0                 ;515
000a8e  482a              LDR      r0,|L2.2872|
000a90  79c0              LDRB     r0,[r0,#7]            ;515  ; OBData
000a92  9016              STR      r0,[sp,#0x58]         ;515
000a94  4828              LDR      r0,|L2.2872|
000a96  7980              LDRB     r0,[r0,#6]            ;515  ; OBData
000a98  9015              STR      r0,[sp,#0x54]         ;515
000a9a  9916              LDR      r1,[sp,#0x58]         ;515
000a9c  f7fffffe          BL       Obd_ASCToHex
000aa0  eb032000          ADD      r0,r3,r0,LSL #8       ;515
000aa4  9017              STR      r0,[sp,#0x5c]         ;515
000aa6  f7fffffe          BL       __aeabi_ui2d
000aaa  4a33              LDR      r2,|L2.2936|
000aac  4b33              LDR      r3,|L2.2940|
000aae  e9cd0118          STRD     r0,r1,[sp,#0x60]      ;515
000ab2  f7fffffe          BL       __aeabi_dmul
000ab6  4a32              LDR      r2,|L2.2944|
000ab8  c203              STM      r2!,{r0,r1}           ;515
                  |L2.2746|
000aba  481c              LDR      r0,|L2.2860|
000abc  7800              LDRB     r0,[r0,#0]            ;517  ; OBDCmdNum
000abe  1c40              ADDS     r0,r0,#1              ;517
000ac0  491a              LDR      r1,|L2.2860|
000ac2  7008              STRB     r0,[r1,#0]            ;517
000ac4  e029              B        |L2.2842|
                  |L2.2758|
000ac6  4819              LDR      r0,|L2.2860|
000ac8  7800              LDRB     r0,[r0,#0]            ;518  ; OBDCmdNum
000aca  280f              CMP      r0,#0xf               ;518
000acc  d125              BNE      |L2.2842|
000ace  2205              MOVS     r2,#5                 ;520
000ad0  a12c              ADR      r1,|L2.2948|
000ad2  4819              LDR      r0,|L2.2872|
000ad4  f7fffffe          BL       RMLStrcmp
000ad8  2801              CMP      r0,#1                 ;520
000ada  d11b              BNE      |L2.2836|
000adc  4816              LDR      r0,|L2.2872|
000ade  7a80              LDRB     r0,[r0,#0xa]          ;521  ; OBData
000ae0  901a              STR      r0,[sp,#0x68]         ;521
000ae2  4815              LDR      r0,|L2.2872|
000ae4  7a40              LDRB     r0,[r0,#9]            ;521  ; OBData
000ae6  9019              STR      r0,[sp,#0x64]         ;521
000ae8  991a              LDR      r1,[sp,#0x68]         ;521
000aea  f7fffffe          BL       Obd_ASCToHex
000aee  4603              MOV      r3,r0                 ;521
000af0  4811              LDR      r0,|L2.2872|
000af2  79c0              LDRB     r0,[r0,#7]            ;521  ; OBData
000af4  901a              STR      r0,[sp,#0x68]         ;521
000af6  4810              LDR      r0,|L2.2872|
000af8  7980              LDRB     r0,[r0,#6]            ;521  ; OBData
000afa  9019              STR      r0,[sp,#0x64]         ;521
000afc  991a              LDR      r1,[sp,#0x68]         ;521
000afe  f7fffffe          BL       Obd_ASCToHex
000b02  eb032000          ADD      r0,r3,r0,LSL #8       ;521
000b06  2164              MOVS     r1,#0x64              ;521
000b08  4348              MULS     r0,r1,r0              ;521
000b0a  21ff              MOVS     r1,#0xff              ;521
000b0c  fbb0f0f1          UDIV     r0,r0,r1              ;521
000b10  491e              LDR      r1,|L2.2956|
000b12  7008              STRB     r0,[r1,#0]            ;521
                  |L2.2836|
000b14  2005              MOVS     r0,#5                 ;523
000b16  4905              LDR      r1,|L2.2860|
000b18  7008              STRB     r0,[r1,#0]            ;523
                  |L2.2842|
000b1a  2000              MOVS     r0,#0                 ;525
000b1c  491c              LDR      r1,|L2.2960|
000b1e  7008              STRB     r0,[r1,#0]            ;525
000b20  e000              B        |L2.2852|
                  |L2.2850|
000b22  bf00              NOP                            ;529
                  |L2.2852|
000b24  bf00              NOP                            ;353
000b26  bf00              NOP      
000b28  f7ffba70          B        |L2.12|
;;;532    
                          ENDP

                  |L2.2860|
                          DCD      OBDCmdNum
                  |L2.2864|
000b30  34312030          DCB      "41 0D",0
000b34  4400    
000b36  00                DCB      0
000b37  00                DCB      0
                  |L2.2872|
                          DCD      OBData
                  |L2.2876|
                          DCD      NowSpd
                  |L2.2880|
000b40  34312030          DCB      "41 04",0
000b44  3400    
000b46  00                DCB      0
000b47  00                DCB      0
                  |L2.2888|
                          DCD      Load
                  |L2.2892|
000b4c  34312030          DCB      "41 05",0
000b50  3500    
000b52  00                DCB      0
000b53  00                DCB      0
                  |L2.2900|
                          DCD      ECT
                  |L2.2904|
000b58  34312030          DCB      "41 0B",0
000b5c  4200    
000b5e  00                DCB      0
000b5f  00                DCB      0
                  |L2.2912|
                          DCD      MAP
                  |L2.2916|
000b64  34312030          DCB      "41 0F",0
000b68  4600    
000b6a  00                DCB      0
000b6b  00                DCB      0
                  |L2.2924|
                          DCD      IAT
                  |L2.2928|
000b70  34312031          DCB      "41 10",0
000b74  3000    
000b76  00                DCB      0
000b77  00                DCB      0
                  |L2.2936|
                          DCD      0x47ae147b
                  |L2.2940|
                          DCD      0x3f847ae1
                  |L2.2944|
                          DCD      MAF
                  |L2.2948|
000b84  34312034          DCB      "41 43",0
000b88  3300    
000b8a  00                DCB      0
000b8b  00                DCB      0
                  |L2.2956|
                          DCD      ALD
                  |L2.2960|
                          DCD      OBDCom

                          AREA ||i.OBD_ASCToHex||, CODE, READONLY, ALIGN=1

                  OBD_ASCToHex PROC
;;;151     */
;;;152    INT32U OBD_ASCToHex(INT8U x , INT8U y)
000000  4602              MOV      r2,r0
;;;153    {
;;;154    	if( x > 0x40 ){
000002  2a40              CMP      r2,#0x40
000004  dd03              BLE      |L3.14|
;;;155    		x = x - 0x41 + 10;
000006  f1a20037          SUB      r0,r2,#0x37
00000a  b2c2              UXTB     r2,r0
00000c  e002              B        |L3.20|
                  |L3.14|
;;;156    	}else{
;;;157    		x = x - 0x30;
00000e  f1a20030          SUB      r0,r2,#0x30
000012  b2c2              UXTB     r2,r0
                  |L3.20|
;;;158    	}
;;;159    	if( y > 0x40 ){
000014  2940              CMP      r1,#0x40
000016  dd03              BLE      |L3.32|
;;;160    		y = y - 0x41 + 10;
000018  f1a10037          SUB      r0,r1,#0x37
00001c  b2c1              UXTB     r1,r0
00001e  e002              B        |L3.38|
                  |L3.32|
;;;161    	}else{
;;;162    		y = y - 0x30;
000020  f1a10030          SUB      r0,r1,#0x30
000024  b2c1              UXTB     r1,r0
                  |L3.38|
;;;163        } 
;;;164        return  x * 16 + y;    
000026  eb011002          ADD      r0,r1,r2,LSL #4
;;;165    }
00002a  4770              BX       lr
;;;166    
                          ENDP


                          AREA ||i.OBD_CAN11bit_DTCHandle||, CODE, READONLY, ALIGN=2

                  OBD_CAN11bit_DTCHandle PROC
;;;187     */
;;;188    void OBD_CAN11bit_DTCHandle(void)
000000  e92d41f0          PUSH     {r4-r8,lr}
;;;189    {	
;;;190    	if( ( OBDataLen - 1 ) % 30 == 0 ){
000004  488e              LDR      r0,|L4.576|
000006  8800              LDRH     r0,[r0,#0]  ; OBDataLen
000008  1e40              SUBS     r0,r0,#1
00000a  211e              MOVS     r1,#0x1e
00000c  fb90f2f1          SDIV     r2,r0,r1
000010  fb010012          MLS      r0,r1,r2,r0
000014  2800              CMP      r0,#0
000016  d17c              BNE      |L4.274|
;;;191    		uint8_t FN,i,j;	
;;;192             
;;;193    		/* 将故障码的各个地址的信息打印出来 */
;;;194    		/* 计算出帧数 */
;;;195    		FN = ( OBDataLen - 1 ) / 30;
000018  4889              LDR      r0,|L4.576|
00001a  8800              LDRH     r0,[r0,#0]  ; OBDataLen
00001c  1e40              SUBS     r0,r0,#1
00001e  fb90f0f1          SDIV     r0,r0,r1
000022  b2c7              UXTB     r7,r0
;;;196    
;;;197    		/* 解析每帧的内容 */
;;;198    		for( i = 0 ; i < FN ; i++ ){
000024  2400              MOVS     r4,#0
000026  e08b              B        |L4.320|
                  |L4.40|
;;;199    			uint8_t NewAdd = 1;
000028  2501              MOVS     r5,#1
;;;200    			
;;;201    			/* 将相同地址的DTC信息统一在一起 */
;;;202    			for( j = 0 ; j < ECUNum; j++ ){
00002a  2600              MOVS     r6,#0
00002c  e04a              B        |L4.196|
                  |L4.46|
;;;203    				if( RMLStrcmp( OBData + (30*i) , DTCInfo_PerECU[j].ECUAdd , 4 ) == 1){
00002e  ebc61206          RSB      r2,r6,r6,LSL #4
000032  ebc212c6          RSB      r2,r2,r6,LSL #7
000036  4b83              LDR      r3,|L4.580|
000038  18d1              ADDS     r1,r2,r3
00003a  4a83              LDR      r2,|L4.584|
00003c  231e              MOVS     r3,#0x1e
00003e  fb032004          MLA      r0,r3,r4,r2
000042  2204              MOVS     r2,#4
000044  f7fffffe          BL       RMLStrcmp
000048  2801              CMP      r0,#1
00004a  d139              BNE      |L4.192|
;;;204    					/* 每个ECU地址内的DTC数据长度不得超过100字节 */
;;;205    					if( 24 + DTCInfo_PerECU[j].ECUFNum * 21 < DTCMAXLEN_PERECU ){	
00004c  ebc61006          RSB      r0,r6,r6,LSL #4
000050  ebc010c6          RSB      r0,r0,r6,LSL #7
000054  497b              LDR      r1,|L4.580|
000056  4408              ADD      r0,r0,r1
000058  7b00              LDRB     r0,[r0,#0xc]
00005a  ebc000c0          RSB      r0,r0,r0,LSL #3
00005e  eb000040          ADD      r0,r0,r0,LSL #1
000062  3018              ADDS     r0,r0,#0x18
000064  2864              CMP      r0,#0x64
000066  da29              BGE      |L4.188|
;;;206    						/* 拷贝DTC信息 */
;;;207    						RMLStrcpy( DTCInfo_PerECU[j].DTCData + 24 + 21 * (DTCInfo_PerECU[j].ECUFNum - 1)
000068  ebc61206          RSB      r2,r6,r6,LSL #4
00006c  ebc212c6          RSB      r2,r2,r6,LSL #7
000070  460b              MOV      r3,r1
000072  441a              ADD      r2,r2,r3
000074  3225              ADDS     r2,r2,#0x25
000076  ebc61306          RSB      r3,r6,r6,LSL #4
00007a  ebc313c6          RSB      r3,r3,r6,LSL #7
00007e  468c              MOV      r12,r1
000080  4463              ADD      r3,r3,r12
000082  7b1b              LDRB     r3,[r3,#0xc]
000084  1e5b              SUBS     r3,r3,#1
000086  f04f0c15          MOV      r12,#0x15
00008a  fb0c2003          MLA      r0,r12,r3,r2
00008e  4a6e              LDR      r2,|L4.584|
000090  231e              MOVS     r3,#0x1e
000092  fb032204          MLA      r2,r3,r4,r2
000096  1dd1              ADDS     r1,r2,#7
000098  4662              MOV      r2,r12
00009a  f7fffffe          BL       RMLStrcpy
;;;208    								, OBData + (30*i) + 7, 21 );
;;;209    						/* 增加该ECU地址的DTC帧数 */
;;;210    						DTCInfo_PerECU[j].ECUFNum++;	
00009e  ebc61006          RSB      r0,r6,r6,LSL #4
0000a2  ebc010c6          RSB      r0,r0,r6,LSL #7
0000a6  4967              LDR      r1,|L4.580|
0000a8  4408              ADD      r0,r0,r1
0000aa  7b00              LDRB     r0,[r0,#0xc]
0000ac  1c40              ADDS     r0,r0,#1
0000ae  ebc61106          RSB      r1,r6,r6,LSL #4
0000b2  ebc111c6          RSB      r1,r1,r6,LSL #7
0000b6  4a63              LDR      r2,|L4.580|
0000b8  4411              ADD      r1,r1,r2
0000ba  7308              STRB     r0,[r1,#0xc]
                  |L4.188|
;;;211    					}
;;;212    					NewAdd = 0;
0000bc  2500              MOVS     r5,#0
;;;213    					break;
0000be  e005              B        |L4.204|
                  |L4.192|
0000c0  1c70              ADDS     r0,r6,#1              ;202
0000c2  b2c6              UXTB     r6,r0                 ;202
                  |L4.196|
0000c4  4861              LDR      r0,|L4.588|
0000c6  7800              LDRB     r0,[r0,#0]            ;202  ; ECUNum
0000c8  4286              CMP      r6,r0                 ;202
0000ca  dbb0              BLT      |L4.46|
                  |L4.204|
0000cc  bf00              NOP      
;;;214    				}	
;;;215    			
;;;216    			}
;;;217    
;;;218    	 		if( NewAdd && ECUNum < ECUMAXNUM ){
0000ce  b3ad              CBZ      r5,|L4.316|
0000d0  485e              LDR      r0,|L4.588|
0000d2  7800              LDRB     r0,[r0,#0]  ; ECUNum
0000d4  2805              CMP      r0,#5
0000d6  da31              BGE      |L4.316|
;;;219    				RMLStrcpy( DTCInfo_PerECU[ECUNum].ECUAdd, OBData + (30*i), 4 );	
0000d8  4a5b              LDR      r2,|L4.584|
0000da  231e              MOVS     r3,#0x1e
0000dc  fb032104          MLA      r1,r3,r4,r2
0000e0  4a5a              LDR      r2,|L4.588|
0000e2  7812              LDRB     r2,[r2,#0]  ; ECUNum
0000e4  ebc21302          RSB      r3,r2,r2,LSL #4
0000e8  ebc312c2          RSB      r2,r3,r2,LSL #7
0000ec  4b55              LDR      r3,|L4.580|
0000ee  18d0              ADDS     r0,r2,r3
0000f0  2204              MOVS     r2,#4
0000f2  f7fffffe          BL       RMLStrcpy
;;;220    				RMLStrcpy( DTCInfo_PerECU[ECUNum].DTCData, OBData + (30*i) + 4, 24 );
0000f6  4a54              LDR      r2,|L4.584|
0000f8  231e              MOVS     r3,#0x1e
0000fa  fb032204          MLA      r2,r3,r4,r2
0000fe  1d11              ADDS     r1,r2,#4
000100  4a52              LDR      r2,|L4.588|
000102  7812              LDRB     r2,[r2,#0]  ; ECUNum
000104  ebc21302          RSB      r3,r2,r2,LSL #4
000108  ebc312c2          RSB      r2,r3,r2,LSL #7
00010c  4b4d              LDR      r3,|L4.580|
00010e  441a              ADD      r2,r2,r3
000110  e000              B        |L4.276|
                  |L4.274|
000112  e092              B        |L4.570|
                  |L4.276|
000114  f102000d          ADD      r0,r2,#0xd
000118  2218              MOVS     r2,#0x18
00011a  f7fffffe          BL       RMLStrcpy
;;;221    				DTCInfo_PerECU[ECUNum].ECUFNum = 1;	
00011e  2001              MOVS     r0,#1
000120  494a              LDR      r1,|L4.588|
000122  7809              LDRB     r1,[r1,#0]  ; ECUNum
000124  ebc11201          RSB      r2,r1,r1,LSL #4
000128  ebc211c1          RSB      r1,r2,r1,LSL #7
00012c  4a45              LDR      r2,|L4.580|
00012e  4411              ADD      r1,r1,r2
000130  7308              STRB     r0,[r1,#0xc]
;;;222    				ECUNum++;
000132  4846              LDR      r0,|L4.588|
000134  7800              LDRB     r0,[r0,#0]  ; ECUNum
000136  1c40              ADDS     r0,r0,#1
000138  4944              LDR      r1,|L4.588|
00013a  7008              STRB     r0,[r1,#0]
                  |L4.316|
00013c  1c60              ADDS     r0,r4,#1              ;198
00013e  b2c4              UXTB     r4,r0                 ;198
                  |L4.320|
000140  42bc              CMP      r4,r7                 ;198
000142  f6ffaf71          BLT      |L4.40|
;;;223    			}		
;;;224    		}	
;;;225    
;;;226    		for( i = 0 ; i < ECUNum ; i++ ){
000146  2400              MOVS     r4,#0
000148  e072              B        |L4.560|
                  |L4.330|
;;;227    			uint8_t DTCNumtmp;
;;;228    			if(DTCInfo_PerECU[i].ECUFNum == 1){			
00014a  ebc41004          RSB      r0,r4,r4,LSL #4
00014e  ebc010c4          RSB      r0,r0,r4,LSL #7
000152  493c              LDR      r1,|L4.580|
000154  4408              ADD      r0,r0,r1
000156  7b00              LDRB     r0,[r0,#0xc]
000158  2801              CMP      r0,#1
00015a  d133              BNE      |L4.452|
;;;229    				DTCNumtmp = OBD_ASCToHex(DTCInfo_PerECU[i].DTCData[6] , DTCInfo_PerECU[i].DTCData[7]);
00015c  ebc41204          RSB      r2,r4,r4,LSL #4
000160  ebc212c4          RSB      r2,r2,r4,LSL #7
000164  460b              MOV      r3,r1
000166  441a              ADD      r2,r2,r3
000168  7d11              LDRB     r1,[r2,#0x14]
00016a  ebc41204          RSB      r2,r4,r4,LSL #4
00016e  ebc212c4          RSB      r2,r2,r4,LSL #7
000172  441a              ADD      r2,r2,r3
000174  7cd0              LDRB     r0,[r2,#0x13]
000176  f7fffffe          BL       OBD_ASCToHex
00017a  b2c5              UXTB     r5,r0
;;;230    				if( DTCNumtmp > 2 || DTCNumtmp + DTCNum > 10 )
00017c  2d02              CMP      r5,#2
00017e  dc04              BGT      |L4.394|
000180  4833              LDR      r0,|L4.592|
000182  7800              LDRB     r0,[r0,#0]  ; DTCNum
000184  4428              ADD      r0,r0,r5
000186  280a              CMP      r0,#0xa
000188  dd00              BLE      |L4.396|
                  |L4.394|
;;;231    					continue;			
00018a  e04f              B        |L4.556|
                  |L4.396|
;;;232    				RMLStrcpy( DTCInfo + DTCNum * 6 , DTCInfo_PerECU[i].DTCData + 9 , DTCNumtmp * 6 );
00018c  eb050345          ADD      r3,r5,r5,LSL #1
000190  005a              LSLS     r2,r3,#1
000192  ebc41304          RSB      r3,r4,r4,LSL #4
000196  ebc313c4          RSB      r3,r3,r4,LSL #7
00019a  f8dfc0a8          LDR      r12,|L4.580|
00019e  4463              ADD      r3,r3,r12
0001a0  f1030116          ADD      r1,r3,#0x16
0001a4  4b2a              LDR      r3,|L4.592|
0001a6  781b              LDRB     r3,[r3,#0]  ; DTCNum
0001a8  eb030343          ADD      r3,r3,r3,LSL #1
0001ac  f8dfc0a4          LDR      r12,|L4.596|
0001b0  eb0c0043          ADD      r0,r12,r3,LSL #1
0001b4  f7fffffe          BL       RMLStrcpy
;;;233    				DTCNum += DTCNumtmp;						
0001b8  4825              LDR      r0,|L4.592|
0001ba  7800              LDRB     r0,[r0,#0]  ; DTCNum
0001bc  4428              ADD      r0,r0,r5
0001be  4924              LDR      r1,|L4.592|
0001c0  7008              STRB     r0,[r1,#0]
0001c2  e032              B        |L4.554|
                  |L4.452|
;;;234    			}else{
;;;235    				DTCNumtmp = OBD_ASCToHex(DTCInfo_PerECU[i].DTCData[9] , DTCInfo_PerECU[i].DTCData[10]);
0001c4  ebc41204          RSB      r2,r4,r4,LSL #4
0001c8  ebc212c4          RSB      r2,r2,r4,LSL #7
0001cc  4b1d              LDR      r3,|L4.580|
0001ce  441a              ADD      r2,r2,r3
0001d0  7dd1              LDRB     r1,[r2,#0x17]
0001d2  ebc41204          RSB      r2,r4,r4,LSL #4
0001d6  ebc212c4          RSB      r2,r2,r4,LSL #7
0001da  441a              ADD      r2,r2,r3
0001dc  7d90              LDRB     r0,[r2,#0x16]
0001de  f7fffffe          BL       OBD_ASCToHex
0001e2  b2c5              UXTB     r5,r0
;;;236    				if( DTCNumtmp > 10 || DTCNumtmp + DTCNum > 10 )
0001e4  2d0a              CMP      r5,#0xa
0001e6  dc04              BGT      |L4.498|
0001e8  4819              LDR      r0,|L4.592|
0001ea  7800              LDRB     r0,[r0,#0]  ; DTCNum
0001ec  4428              ADD      r0,r0,r5
0001ee  280a              CMP      r0,#0xa
0001f0  dd00              BLE      |L4.500|
                  |L4.498|
;;;237    					continue;	
0001f2  e01b              B        |L4.556|
                  |L4.500|
;;;238    				RMLStrcpy( DTCInfo + DTCNum * 6, DTCInfo_PerECU[i].DTCData + 12, DTCNumtmp * 6 );
0001f4  eb050345          ADD      r3,r5,r5,LSL #1
0001f8  005a              LSLS     r2,r3,#1
0001fa  ebc41304          RSB      r3,r4,r4,LSL #4
0001fe  ebc313c4          RSB      r3,r3,r4,LSL #7
000202  f8dfc040          LDR      r12,|L4.580|
000206  4463              ADD      r3,r3,r12
000208  f1030119          ADD      r1,r3,#0x19
00020c  4b10              LDR      r3,|L4.592|
00020e  781b              LDRB     r3,[r3,#0]  ; DTCNum
000210  eb030343          ADD      r3,r3,r3,LSL #1
000214  f8dfc03c          LDR      r12,|L4.596|
000218  eb0c0043          ADD      r0,r12,r3,LSL #1
00021c  f7fffffe          BL       RMLStrcpy
;;;239    				DTCNum += DTCNumtmp;				
000220  480b              LDR      r0,|L4.592|
000222  7800              LDRB     r0,[r0,#0]  ; DTCNum
000224  4428              ADD      r0,r0,r5
000226  490a              LDR      r1,|L4.592|
000228  7008              STRB     r0,[r1,#0]
                  |L4.554|
00022a  bf00              NOP                            ;231
                  |L4.556|
00022c  1c60              ADDS     r0,r4,#1              ;226
00022e  b2c4              UXTB     r4,r0                 ;226
                  |L4.560|
000230  4806              LDR      r0,|L4.588|
000232  7800              LDRB     r0,[r0,#0]            ;226  ; ECUNum
000234  4284              CMP      r4,r0                 ;226
000236  db88              BLT      |L4.330|
;;;240    			}	
;;;241    		}
;;;242    	}
000238  bf00              NOP      
                  |L4.570|
;;;243    }
00023a  e8bd81f0          POP      {r4-r8,pc}
;;;244    
                          ENDP

00023e  0000              DCW      0x0000
                  |L4.576|
                          DCD      OBDataLen
                  |L4.580|
                          DCD      DTCInfo_PerECU
                  |L4.584|
                          DCD      OBData
                  |L4.588|
                          DCD      ECUNum
                  |L4.592|
                          DCD      DTCNum
                  |L4.596|
                          DCD      DTCInfo

                          AREA ||i.OBD_CAN29bit_DTCHandle||, CODE, READONLY, ALIGN=2

                  OBD_CAN29bit_DTCHandle PROC
;;;250     */
;;;251    void OBD_CAN29bit_DTCHandle(void)
000000  e92d41f0          PUSH     {r4-r8,lr}
;;;252    {
;;;253    		if( ( OBDataLen - 1 ) % 38 == 0 ){
000004  488f              LDR      r0,|L5.580|
000006  8800              LDRH     r0,[r0,#0]  ; OBDataLen
000008  1e40              SUBS     r0,r0,#1
00000a  2126              MOVS     r1,#0x26
00000c  fb90f2f1          SDIV     r2,r0,r1
000010  fb010012          MLS      r0,r1,r2,r0
000014  2800              CMP      r0,#0
000016  d17d              BNE      |L5.276|
;;;254    		uint8_t FN,i,j;	
;;;255             
;;;256    		/* 将故障码的各个地址的信息打印出来 */
;;;257    		/* 计算出帧数 */
;;;258    		FN = ( OBDataLen - 1 ) / 38;
000018  488a              LDR      r0,|L5.580|
00001a  8800              LDRH     r0,[r0,#0]  ; OBDataLen
00001c  1e40              SUBS     r0,r0,#1
00001e  fb90f0f1          SDIV     r0,r0,r1
000022  b2c7              UXTB     r7,r0
;;;259    
;;;260    		/* 解析每帧的内容 */
;;;261    		for( i = 0 ; i < FN ; i++ ){
000024  2400              MOVS     r4,#0
000026  e08d              B        |L5.324|
                  |L5.40|
;;;262    			uint8_t NewAdd = 1;
000028  2501              MOVS     r5,#1
;;;263    			
;;;264    			/* 将相同地址的DTC信息统一在一起 */
;;;265    			for( j = 0 ; j < ECUNum; j++ ){
00002a  2600              MOVS     r6,#0
00002c  e04b              B        |L5.198|
                  |L5.46|
;;;266    				if( RMLStrcmp( OBData + (38*i) , DTCInfo_PerECU[j].ECUAdd , 12 ) == 1){
00002e  ebc61206          RSB      r2,r6,r6,LSL #4
000032  ebc212c6          RSB      r2,r2,r6,LSL #7
000036  4b84              LDR      r3,|L5.584|
000038  18d1              ADDS     r1,r2,r3
00003a  4a84              LDR      r2,|L5.588|
00003c  2326              MOVS     r3,#0x26
00003e  fb032004          MLA      r0,r3,r4,r2
000042  220c              MOVS     r2,#0xc
000044  f7fffffe          BL       RMLStrcmp
000048  2801              CMP      r0,#1
00004a  d13a              BNE      |L5.194|
;;;267    					/* 每个ECU地址内的DTC数据长度不得超过100字节 */
;;;268    					if( 24 + DTCInfo_PerECU[j].ECUFNum * 21 < DTCMAXLEN_PERECU ){	
00004c  ebc61006          RSB      r0,r6,r6,LSL #4
000050  ebc010c6          RSB      r0,r0,r6,LSL #7
000054  497c              LDR      r1,|L5.584|
000056  4408              ADD      r0,r0,r1
000058  7b00              LDRB     r0,[r0,#0xc]
00005a  ebc000c0          RSB      r0,r0,r0,LSL #3
00005e  eb000040          ADD      r0,r0,r0,LSL #1
000062  3018              ADDS     r0,r0,#0x18
000064  2864              CMP      r0,#0x64
000066  da2a              BGE      |L5.190|
;;;269    						/* 拷贝DTC信息 */
;;;270    						RMLStrcpy( DTCInfo_PerECU[j].DTCData + 24 + 21 * (DTCInfo_PerECU[j].ECUFNum - 1)
000068  ebc61206          RSB      r2,r6,r6,LSL #4
00006c  ebc212c6          RSB      r2,r2,r6,LSL #7
000070  460b              MOV      r3,r1
000072  441a              ADD      r2,r2,r3
000074  3225              ADDS     r2,r2,#0x25
000076  ebc61306          RSB      r3,r6,r6,LSL #4
00007a  ebc313c6          RSB      r3,r3,r6,LSL #7
00007e  468c              MOV      r12,r1
000080  4463              ADD      r3,r3,r12
000082  7b1b              LDRB     r3,[r3,#0xc]
000084  1e5b              SUBS     r3,r3,#1
000086  f04f0c15          MOV      r12,#0x15
00008a  fb0c2003          MLA      r0,r12,r3,r2
00008e  4a6f              LDR      r2,|L5.588|
000090  2326              MOVS     r3,#0x26
000092  fb032204          MLA      r2,r3,r4,r2
000096  f102010f          ADD      r1,r2,#0xf
00009a  4662              MOV      r2,r12
00009c  f7fffffe          BL       RMLStrcpy
;;;271    								,OBData + (38*i) + 15, 21 );
;;;272    						/* 增加该ECU地址的DTC帧数 */
;;;273    						DTCInfo_PerECU[j].ECUFNum++;	
0000a0  ebc61006          RSB      r0,r6,r6,LSL #4
0000a4  ebc010c6          RSB      r0,r0,r6,LSL #7
0000a8  4967              LDR      r1,|L5.584|
0000aa  4408              ADD      r0,r0,r1
0000ac  7b00              LDRB     r0,[r0,#0xc]
0000ae  1c40              ADDS     r0,r0,#1
0000b0  ebc61106          RSB      r1,r6,r6,LSL #4
0000b4  ebc111c6          RSB      r1,r1,r6,LSL #7
0000b8  4a63              LDR      r2,|L5.584|
0000ba  4411              ADD      r1,r1,r2
0000bc  7308              STRB     r0,[r1,#0xc]
                  |L5.190|
;;;274    					}
;;;275    					NewAdd = 0;
0000be  2500              MOVS     r5,#0
;;;276    					break;
0000c0  e005              B        |L5.206|
                  |L5.194|
0000c2  1c70              ADDS     r0,r6,#1              ;265
0000c4  b2c6              UXTB     r6,r0                 ;265
                  |L5.198|
0000c6  4862              LDR      r0,|L5.592|
0000c8  7800              LDRB     r0,[r0,#0]            ;265  ; ECUNum
0000ca  4286              CMP      r6,r0                 ;265
0000cc  dbaf              BLT      |L5.46|
                  |L5.206|
0000ce  bf00              NOP      
;;;277    				}	
;;;278    			
;;;279    			}
;;;280    
;;;281    	 		if( NewAdd && ECUNum < ECUMAXNUM ){
0000d0  b3b5              CBZ      r5,|L5.320|
0000d2  485f              LDR      r0,|L5.592|
0000d4  7800              LDRB     r0,[r0,#0]  ; ECUNum
0000d6  2805              CMP      r0,#5
0000d8  da32              BGE      |L5.320|
;;;282    				RMLStrcpy( DTCInfo_PerECU[ECUNum].ECUAdd,  OBData + (38*i), 12 );	
0000da  4a5c              LDR      r2,|L5.588|
0000dc  2326              MOVS     r3,#0x26
0000de  fb032104          MLA      r1,r3,r4,r2
0000e2  4a5b              LDR      r2,|L5.592|
0000e4  7812              LDRB     r2,[r2,#0]  ; ECUNum
0000e6  ebc21302          RSB      r3,r2,r2,LSL #4
0000ea  ebc312c2          RSB      r2,r3,r2,LSL #7
0000ee  4b56              LDR      r3,|L5.584|
0000f0  18d0              ADDS     r0,r2,r3
0000f2  220c              MOVS     r2,#0xc
0000f4  f7fffffe          BL       RMLStrcpy
;;;283    				RMLStrcpy( DTCInfo_PerECU[ECUNum].DTCData, OBData + (38*i) + 12, 24 );
0000f8  4a54              LDR      r2,|L5.588|
0000fa  2326              MOVS     r3,#0x26
0000fc  fb032204          MLA      r2,r3,r4,r2
000100  f102010c          ADD      r1,r2,#0xc
000104  4a52              LDR      r2,|L5.592|
000106  7812              LDRB     r2,[r2,#0]  ; ECUNum
000108  ebc21302          RSB      r3,r2,r2,LSL #4
00010c  ebc312c2          RSB      r2,r3,r2,LSL #7
000110  4b4d              LDR      r3,|L5.584|
000112  e000              B        |L5.278|
                  |L5.276|
000114  e093              B        |L5.574|
                  |L5.278|
000116  441a              ADD      r2,r2,r3
000118  f102000d          ADD      r0,r2,#0xd
00011c  2218              MOVS     r2,#0x18
00011e  f7fffffe          BL       RMLStrcpy
;;;284    				DTCInfo_PerECU[ECUNum].ECUFNum = 1;	
000122  2001              MOVS     r0,#1
000124  494a              LDR      r1,|L5.592|
000126  7809              LDRB     r1,[r1,#0]  ; ECUNum
000128  ebc11201          RSB      r2,r1,r1,LSL #4
00012c  ebc211c1          RSB      r1,r2,r1,LSL #7
000130  4a45              LDR      r2,|L5.584|
000132  4411              ADD      r1,r1,r2
000134  7308              STRB     r0,[r1,#0xc]
;;;285    				ECUNum++;
000136  4846              LDR      r0,|L5.592|
000138  7800              LDRB     r0,[r0,#0]  ; ECUNum
00013a  1c40              ADDS     r0,r0,#1
00013c  4944              LDR      r1,|L5.592|
00013e  7008              STRB     r0,[r1,#0]
                  |L5.320|
000140  1c60              ADDS     r0,r4,#1              ;261
000142  b2c4              UXTB     r4,r0                 ;261
                  |L5.324|
000144  42bc              CMP      r4,r7                 ;261
000146  f6ffaf6f          BLT      |L5.40|
;;;286    			}	
;;;287    		}	
;;;288    
;;;289    		for( i = 0 ; i < ECUNum ; i++ ){
00014a  2400              MOVS     r4,#0
00014c  e072              B        |L5.564|
                  |L5.334|
;;;290    			uint8_t DTCNumtmp;
;;;291    			if(DTCInfo_PerECU[i].ECUFNum == 1){			
00014e  ebc41004          RSB      r0,r4,r4,LSL #4
000152  ebc010c4          RSB      r0,r0,r4,LSL #7
000156  493c              LDR      r1,|L5.584|
000158  4408              ADD      r0,r0,r1
00015a  7b00              LDRB     r0,[r0,#0xc]
00015c  2801              CMP      r0,#1
00015e  d133              BNE      |L5.456|
;;;292    				DTCNumtmp = OBD_ASCToHex(DTCInfo_PerECU[i].DTCData[6] , DTCInfo_PerECU[i].DTCData[7]);
000160  ebc41204          RSB      r2,r4,r4,LSL #4
000164  ebc212c4          RSB      r2,r2,r4,LSL #7
000168  460b              MOV      r3,r1
00016a  441a              ADD      r2,r2,r3
00016c  7d11              LDRB     r1,[r2,#0x14]
00016e  ebc41204          RSB      r2,r4,r4,LSL #4
000172  ebc212c4          RSB      r2,r2,r4,LSL #7
000176  441a              ADD      r2,r2,r3
000178  7cd0              LDRB     r0,[r2,#0x13]
00017a  f7fffffe          BL       OBD_ASCToHex
00017e  b2c5              UXTB     r5,r0
;;;293    				if( DTCNumtmp > 2 || DTCNumtmp + DTCNum > 10 )
000180  2d02              CMP      r5,#2
000182  dc04              BGT      |L5.398|
000184  4833              LDR      r0,|L5.596|
000186  7800              LDRB     r0,[r0,#0]  ; DTCNum
000188  4428              ADD      r0,r0,r5
00018a  280a              CMP      r0,#0xa
00018c  dd00              BLE      |L5.400|
                  |L5.398|
;;;294    					continue;			
00018e  e04f              B        |L5.560|
                  |L5.400|
;;;295    				RMLStrcpy( DTCInfo + DTCNum * 6 , DTCInfo_PerECU[i].DTCData + 9 , DTCNumtmp * 6 );
000190  eb050345          ADD      r3,r5,r5,LSL #1
000194  005a              LSLS     r2,r3,#1
000196  ebc41304          RSB      r3,r4,r4,LSL #4
00019a  ebc313c4          RSB      r3,r3,r4,LSL #7
00019e  f8dfc0a8          LDR      r12,|L5.584|
0001a2  4463              ADD      r3,r3,r12
0001a4  f1030116          ADD      r1,r3,#0x16
0001a8  4b2a              LDR      r3,|L5.596|
0001aa  781b              LDRB     r3,[r3,#0]  ; DTCNum
0001ac  eb030343          ADD      r3,r3,r3,LSL #1
0001b0  f8dfc0a4          LDR      r12,|L5.600|
0001b4  eb0c0043          ADD      r0,r12,r3,LSL #1
0001b8  f7fffffe          BL       RMLStrcpy
;;;296    				DTCNum += DTCNumtmp;						
0001bc  4825              LDR      r0,|L5.596|
0001be  7800              LDRB     r0,[r0,#0]  ; DTCNum
0001c0  4428              ADD      r0,r0,r5
0001c2  4924              LDR      r1,|L5.596|
0001c4  7008              STRB     r0,[r1,#0]
0001c6  e032              B        |L5.558|
                  |L5.456|
;;;297    			}else{
;;;298    				DTCNumtmp = OBD_ASCToHex(DTCInfo_PerECU[i].DTCData[9] , DTCInfo_PerECU[i].DTCData[10]);
0001c8  ebc41204          RSB      r2,r4,r4,LSL #4
0001cc  ebc212c4          RSB      r2,r2,r4,LSL #7
0001d0  4b1d              LDR      r3,|L5.584|
0001d2  441a              ADD      r2,r2,r3
0001d4  7dd1              LDRB     r1,[r2,#0x17]
0001d6  ebc41204          RSB      r2,r4,r4,LSL #4
0001da  ebc212c4          RSB      r2,r2,r4,LSL #7
0001de  441a              ADD      r2,r2,r3
0001e0  7d90              LDRB     r0,[r2,#0x16]
0001e2  f7fffffe          BL       OBD_ASCToHex
0001e6  b2c5              UXTB     r5,r0
;;;299    				if( DTCNumtmp > 10 || DTCNumtmp + DTCNum > 10 )
0001e8  2d0a              CMP      r5,#0xa
0001ea  dc04              BGT      |L5.502|
0001ec  4819              LDR      r0,|L5.596|
0001ee  7800              LDRB     r0,[r0,#0]  ; DTCNum
0001f0  4428              ADD      r0,r0,r5
0001f2  280a              CMP      r0,#0xa
0001f4  dd00              BLE      |L5.504|
                  |L5.502|
;;;300    					continue;	
0001f6  e01b              B        |L5.560|
                  |L5.504|
;;;301    				RMLStrcpy( DTCInfo + DTCNum * 6, DTCInfo_PerECU[i].DTCData + 12, DTCNumtmp * 6 );
0001f8  eb050345          ADD      r3,r5,r5,LSL #1
0001fc  005a              LSLS     r2,r3,#1
0001fe  ebc41304          RSB      r3,r4,r4,LSL #4
000202  ebc313c4          RSB      r3,r3,r4,LSL #7
000206  f8dfc040          LDR      r12,|L5.584|
00020a  4463              ADD      r3,r3,r12
00020c  f1030119          ADD      r1,r3,#0x19
000210  4b10              LDR      r3,|L5.596|
000212  781b              LDRB     r3,[r3,#0]  ; DTCNum
000214  eb030343          ADD      r3,r3,r3,LSL #1
000218  f8dfc03c          LDR      r12,|L5.600|
00021c  eb0c0043          ADD      r0,r12,r3,LSL #1
000220  f7fffffe          BL       RMLStrcpy
;;;302    				DTCNum += DTCNumtmp;				
000224  480b              LDR      r0,|L5.596|
000226  7800              LDRB     r0,[r0,#0]  ; DTCNum
000228  4428              ADD      r0,r0,r5
00022a  490a              LDR      r1,|L5.596|
00022c  7008              STRB     r0,[r1,#0]
                  |L5.558|
00022e  bf00              NOP                            ;294
                  |L5.560|
000230  1c60              ADDS     r0,r4,#1              ;289
000232  b2c4              UXTB     r4,r0                 ;289
                  |L5.564|
000234  4806              LDR      r0,|L5.592|
000236  7800              LDRB     r0,[r0,#0]            ;289  ; ECUNum
000238  4284              CMP      r4,r0                 ;289
00023a  db88              BLT      |L5.334|
;;;303    			}	
;;;304    		}
;;;305    	}
00023c  bf00              NOP      
                  |L5.574|
;;;306    }
00023e  e8bd81f0          POP      {r4-r8,pc}
;;;307    
                          ENDP

000242  0000              DCW      0x0000
                  |L5.580|
                          DCD      OBDataLen
                  |L5.584|
                          DCD      DTCInfo_PerECU
                  |L5.588|
                          DCD      OBData
                  |L5.592|
                          DCD      ECUNum
                  |L5.596|
                          DCD      DTCNum
                  |L5.600|
                          DCD      DTCInfo

                          AREA ||i.OBD_GetALD||, CODE, READONLY, ALIGN=2

                  OBD_GetALD PROC
;;;647    }
;;;648    INT8U OBD_GetALD(void){ //绝对负荷
000000  4801              LDR      r0,|L6.8|
;;;649       
;;;650    	
;;;651    	return (ALD);
000002  7800              LDRB     r0,[r0,#0]  ; ALD
;;;652    
;;;653    
;;;654    
;;;655    }
000004  4770              BX       lr
;;;656    INT16S OBD_GetIAT(void){  //进气温度
                          ENDP

000006  0000              DCW      0x0000
                  |L6.8|
                          DCD      ALD

                          AREA ||i.OBD_GetAccleration||, CODE, READONLY, ALIGN=2

                  OBD_GetAccleration PROC
;;;623    }
;;;624    INT16S  OBD_GetAccleration(void){
000000  e92d41f0          PUSH     {r4-r8,lr}
;;;625        double data=(NowSpd-LastSpd)*1000/7200;
000004  480e              LDR      r0,|L7.64|
000006  7800              LDRB     r0,[r0,#0]  ; NowSpd
000008  490e              LDR      r1,|L7.68|
00000a  7809              LDRB     r1,[r1,#0]  ; LastSpd
00000c  1a40              SUBS     r0,r0,r1
00000e  f44f717a          MOV      r1,#0x3e8
000012  4348              MULS     r0,r1,r0
000014  f44f51e1          MOV      r1,#0x1c20
000018  fb90f4f1          SDIV     r4,r0,r1
00001c  4620              MOV      r0,r4
00001e  f7fffffe          BL       __aeabi_i2d
000022  4605              MOV      r5,r0
000024  460e              MOV      r6,r1
;;;626        return (data*10 );
000026  2200              MOVS     r2,#0
000028  4b07              LDR      r3,|L7.72|
00002a  4628              MOV      r0,r5
00002c  4631              MOV      r1,r6
00002e  f7fffffe          BL       __aeabi_dmul
000032  4607              MOV      r7,r0
000034  f7fffffe          BL       __aeabi_d2iz
000038  b200              SXTH     r0,r0
;;;627    
;;;628    
;;;629    }
00003a  e8bd81f0          POP      {r4-r8,pc}
;;;630    
                          ENDP

00003e  0000              DCW      0x0000
                  |L7.64|
                          DCD      NowSpd
                  |L7.68|
                          DCD      LastSpd
                  |L7.72|
                          DCD      0x40240000

                          AREA ||i.OBD_GetCarSpeed||, CODE, READONLY, ALIGN=2

                  OBD_GetCarSpeed PROC
;;;614     */
;;;615    INT8U OBD_GetCarSpeed(void)
000000  4801              LDR      r0,|L8.8|
;;;616    {
;;;617    	return ( NowSpd );
000002  7800              LDRB     r0,[r0,#0]  ; NowSpd
;;;618    }
000004  4770              BX       lr
;;;619    
                          ENDP

000006  0000              DCW      0x0000
                  |L8.8|
                          DCD      NowSpd

                          AREA ||i.OBD_GetDTCInfo||, CODE, READONLY, ALIGN=2

                  OBD_GetDTCInfo PROC
;;;551     */
;;;552    void OBD_GetDTCInfo( BYTE * data )
000000  b538              PUSH     {r3-r5,lr}
;;;553    {
000002  4604              MOV      r4,r0
;;;554    	INT8U i;
;;;555    	
;;;556    	for( i = 0 ; i < DTCNum ; i++ )
000004  2500              MOVS     r5,#0
000006  e036              B        |L9.118|
                  |L9.8|
;;;557    	{
;;;558    		BYTE Temp[2];
;;;559    		Change_OBDDTC_Form(DTCInfo[0+(i*6)],Temp);
000008  eb050145          ADD      r1,r5,r5,LSL #1
00000c  2200              MOVS     r2,#0
00000e  eb020141          ADD      r1,r2,r1,LSL #1
000012  4a1b              LDR      r2,|L9.128|
000014  5c50              LDRB     r0,[r2,r1]
000016  4669              MOV      r1,sp
000018  f7fffffe          BL       Change_OBDDTC_Form
;;;560    
;;;561    		*data++ = Temp[0];
00001c  f89d0000          LDRB     r0,[sp,#0]
000020  f8040b01          STRB     r0,[r4],#1
;;;562    		*data++ = Temp[1];
000024  f89d0001          LDRB     r0,[sp,#1]
000028  f8040b01          STRB     r0,[r4],#1
;;;563    		*data++ = DTCInfo[1+(i*6)];
00002c  eb050045          ADD      r0,r5,r5,LSL #1
000030  2101              MOVS     r1,#1
000032  eb010040          ADD      r0,r1,r0,LSL #1
000036  4912              LDR      r1,|L9.128|
000038  5c08              LDRB     r0,[r1,r0]
00003a  f8040b01          STRB     r0,[r4],#1
;;;564    		*data++ = DTCInfo[3+(i*6)];
00003e  eb050045          ADD      r0,r5,r5,LSL #1
000042  2103              MOVS     r1,#3
000044  eb010040          ADD      r0,r1,r0,LSL #1
000048  490d              LDR      r1,|L9.128|
00004a  5c08              LDRB     r0,[r1,r0]
00004c  f8040b01          STRB     r0,[r4],#1
;;;565    		*data++ = DTCInfo[4+(i*6)];
000050  eb050045          ADD      r0,r5,r5,LSL #1
000054  2104              MOVS     r1,#4
000056  eb010040          ADD      r0,r1,r0,LSL #1
00005a  4909              LDR      r1,|L9.128|
00005c  5c08              LDRB     r0,[r1,r0]
00005e  f8040b01          STRB     r0,[r4],#1
;;;566    		if( i != (DTCNum - 1) ){
000062  4808              LDR      r0,|L9.132|
000064  7800              LDRB     r0,[r0,#0]  ; DTCNum
000066  1e40              SUBS     r0,r0,#1
000068  42a8              CMP      r0,r5
00006a  d002              BEQ      |L9.114|
;;;567    			*data++ = ',';
00006c  202c              MOVS     r0,#0x2c
00006e  f8040b01          STRB     r0,[r4],#1
                  |L9.114|
000072  1c68              ADDS     r0,r5,#1              ;556
000074  b2c5              UXTB     r5,r0                 ;556
                  |L9.118|
000076  4803              LDR      r0,|L9.132|
000078  7800              LDRB     r0,[r0,#0]            ;556  ; DTCNum
00007a  4285              CMP      r5,r0                 ;556
00007c  dbc4              BLT      |L9.8|
;;;568    		}
;;;569    	}
;;;570    }
00007e  bd38              POP      {r3-r5,pc}
;;;571    
                          ENDP

                  |L9.128|
                          DCD      DTCInfo
                  |L9.132|
                          DCD      DTCNum

                          AREA ||i.OBD_GetDTCNum||, CODE, READONLY, ALIGN=2

                  OBD_GetDTCNum PROC
;;;539     */
;;;540    INT8U OBD_GetDTCNum(void)
000000  4801              LDR      r0,|L10.8|
;;;541    {
;;;542    	return (DTCNum);
000002  7800              LDRB     r0,[r0,#0]  ; DTCNum
;;;543    }
000004  4770              BX       lr
;;;544    
                          ENDP

000006  0000              DCW      0x0000
                  |L10.8|
                          DCD      DTCNum

                          AREA ||i.OBD_GetDrvKiloMeter||, CODE, READONLY, ALIGN=2

                  OBD_GetDrvKiloMeter PROC
;;;590     */
;;;591    INT16U OBD_GetDrvKiloMeter(void)
000000  b570              PUSH     {r4-r6,lr}
;;;592    {
;;;593    	return ( Km * 10);
000002  2200              MOVS     r2,#0
000004  4b04              LDR      r3,|L11.24|
000006  4905              LDR      r1,|L11.28|
000008  c903              LDM      r1,{r0,r1}
00000a  f7fffffe          BL       __aeabi_dmul
00000e  4604              MOV      r4,r0
000010  f7fffffe          BL       __aeabi_d2uiz
000014  b280              UXTH     r0,r0
;;;594    }
000016  bd70              POP      {r4-r6,pc}
;;;595    
                          ENDP

                  |L11.24|
                          DCD      0x40240000
                  |L11.28|
                          DCD      ||Km||

                          AREA ||i.OBD_GetDrvTime||, CODE, READONLY, ALIGN=2

                  OBD_GetDrvTime PROC
;;;602     */
;;;603    INT16U OBD_GetDrvTime(void)
000000  4803              LDR      r0,|L12.16|
;;;604    {
;;;605    	return ( DrvTime / 60000 );
000002  6800              LDR      r0,[r0,#0]  ; DrvTime
000004  f64e2160          MOV      r1,#0xea60
000008  fbb0f0f1          UDIV     r0,r0,r1
00000c  b280              UXTH     r0,r0
;;;606    }
00000e  4770              BX       lr
;;;607    
                          ENDP

                  |L12.16|
                          DCD      DrvTime

                          AREA ||i.OBD_GetEngineSpeed||, CODE, READONLY, ALIGN=2

                  OBD_GetEngineSpeed PROC
;;;636     */ 
;;;637    INT16U OBD_GetEngineSpeed(void)
000000  4801              LDR      r0,|L13.8|
;;;638    {
;;;639    	return (RPM);
000002  8800              LDRH     r0,[r0,#0]  ; RPM
;;;640    }
000004  4770              BX       lr
;;;641    
                          ENDP

000006  0000              DCW      0x0000
                  |L13.8|
                          DCD      ||RPM||

                          AREA ||i.OBD_GetFuel_One||, CODE, READONLY, ALIGN=2

                  OBD_GetFuel_One PROC
;;;681     
;;;682    INT16S   OBD_GetFuel_One (void){  							 // 本次行驶的耗油量一(L)
000000  b570              PUSH     {r4-r6,lr}
;;;683    return (Fuel_One*10);
000002  2200              MOVS     r2,#0
000004  4b04              LDR      r3,|L14.24|
000006  4905              LDR      r1,|L14.28|
000008  c903              LDM      r1,{r0,r1}
00000a  f7fffffe          BL       __aeabi_dmul
00000e  4604              MOV      r4,r0
000010  f7fffffe          BL       __aeabi_d2iz
000014  b200              SXTH     r0,r0
;;;684    
;;;685    }
000016  bd70              POP      {r4-r6,pc}
;;;686    INT16S   OBD_GetFuel_Two (void){  							 // 本次行驶的耗油量二(L)
                          ENDP

                  |L14.24|
                          DCD      0x40240000
                  |L14.28|
                          DCD      Fuel_One

                          AREA ||i.OBD_GetFuel_Three||, CODE, READONLY, ALIGN=2

                  OBD_GetFuel_Three PROC
;;;689    }
;;;690    INT16S  OBD_GetFuel_Three (void){  							 // 本次行驶的耗油量三(L)
000000  b570              PUSH     {r4-r6,lr}
;;;691     return (Fuel_Three*10);
000002  2200              MOVS     r2,#0
000004  4b04              LDR      r3,|L15.24|
000006  4905              LDR      r1,|L15.28|
000008  c903              LDM      r1,{r0,r1}
00000a  f7fffffe          BL       __aeabi_dmul
00000e  4604              MOV      r4,r0
000010  f7fffffe          BL       __aeabi_d2iz
000014  b200              SXTH     r0,r0
;;;692    
;;;693    }
000016  bd70              POP      {r4-r6,pc}
;;;694    INT16U   OBD_GetNowAverageFuelFlow_One(void){  		     // 本次平均油耗 1      (L/100Km)
                          ENDP

                  |L15.24|
                          DCD      0x40240000
                  |L15.28|
                          DCD      Fuel_Three

                          AREA ||i.OBD_GetFuel_Two||, CODE, READONLY, ALIGN=2

                  OBD_GetFuel_Two PROC
;;;685    }
;;;686    INT16S   OBD_GetFuel_Two (void){  							 // 本次行驶的耗油量二(L)
000000  b570              PUSH     {r4-r6,lr}
;;;687    return (Fuel_Two*10);
000002  2200              MOVS     r2,#0
000004  4b04              LDR      r3,|L16.24|
000006  4905              LDR      r1,|L16.28|
000008  c903              LDM      r1,{r0,r1}
00000a  f7fffffe          BL       __aeabi_dmul
00000e  4604              MOV      r4,r0
000010  f7fffffe          BL       __aeabi_d2iz
000014  b200              SXTH     r0,r0
;;;688    
;;;689    }
000016  bd70              POP      {r4-r6,pc}
;;;690    INT16S  OBD_GetFuel_Three (void){  							 // 本次行驶的耗油量三(L)
                          ENDP

                  |L16.24|
                          DCD      0x40240000
                  |L16.28|
                          DCD      Fuel_Two

                          AREA ||i.OBD_GetIAT||, CODE, READONLY, ALIGN=2

                  OBD_GetIAT PROC
;;;655    }
;;;656    INT16S OBD_GetIAT(void){  //进气温度
000000  4801              LDR      r0,|L17.8|
;;;657    
;;;658       return (IAT);
000002  f9b00000          LDRSH    r0,[r0,#0]  ; IAT
;;;659    
;;;660    }
000006  4770              BX       lr
;;;661    
                          ENDP

                  |L17.8|
                          DCD      IAT

                          AREA ||i.OBD_GetLastCarSpeed||, CODE, READONLY, ALIGN=2

                  OBD_GetLastCarSpeed PROC
;;;619    
;;;620    INT8U OBD_GetLastCarSpeed(void)
000000  4801              LDR      r0,|L18.8|
;;;621    {
;;;622    	return ( LastSpd );
000002  7800              LDRB     r0,[r0,#0]  ; LastSpd
;;;623    }
000004  4770              BX       lr
;;;624    INT16S  OBD_GetAccleration(void){
                          ENDP

000006  0000              DCW      0x0000
                  |L18.8|
                          DCD      LastSpd

                          AREA ||i.OBD_GetLoad||, CODE, READONLY, ALIGN=2

                  OBD_GetLoad PROC
;;;672    
;;;673    INT8U    OBD_GetLoad (void){       // 发动机负荷		   (%)
000000  4801              LDR      r0,|L19.8|
;;;674    
;;;675    return (Load);
000002  7800              LDRB     r0,[r0,#0]  ; Load
;;;676    
;;;677    }
000004  4770              BX       lr
;;;678     
                          ENDP

000006  0000              DCW      0x0000
                  |L19.8|
                          DCD      Load

                          AREA ||i.OBD_GetMAF||, CODE, READONLY, ALIGN=2

                  OBD_GetMAF PROC
;;;666    }
;;;667    INT16S   OBD_GetMAF(void){      // 进气质量           (g/s)
000000  b570              PUSH     {r4-r6,lr}
;;;668    
;;;669    return (MAF*100);
000002  2200              MOVS     r2,#0
000004  4b04              LDR      r3,|L20.24|
000006  4905              LDR      r1,|L20.28|
000008  c903              LDM      r1,{r0,r1}
00000a  f7fffffe          BL       __aeabi_dmul
00000e  4604              MOV      r4,r0
000010  f7fffffe          BL       __aeabi_d2iz
000014  b200              SXTH     r0,r0
;;;670    
;;;671    }
000016  bd70              POP      {r4-r6,pc}
;;;672    
                          ENDP

                  |L20.24|
                          DCD      0x40590000
                  |L20.28|
                          DCD      MAF

                          AREA ||i.OBD_GetMAP||, CODE, READONLY, ALIGN=2

                  OBD_GetMAP PROC
;;;661    
;;;662    INT8U    OBD_GetMAP (void){      // 歧管空气压力       (kpa)  
000000  4801              LDR      r0,|L21.8|
;;;663    
;;;664    return (MAP);
000002  7800              LDRB     r0,[r0,#0]  ; MAP
;;;665    
;;;666    }
000004  4770              BX       lr
;;;667    INT16S   OBD_GetMAF(void){      // 进气质量           (g/s)
                          ENDP

000006  0000              DCW      0x0000
                  |L21.8|
                          DCD      MAP

                          AREA ||i.OBD_GetNowAverageFuelFlow_One||, CODE, READONLY, ALIGN=2

                  OBD_GetNowAverageFuelFlow_One PROC
;;;693    }
;;;694    INT16U   OBD_GetNowAverageFuelFlow_One(void){  		     // 本次平均油耗 1      (L/100Km)
000000  4801              LDR      r0,|L22.8|
;;;695    return (NowAverageFuelFlow_One);
000002  8800              LDRH     r0,[r0,#0]  ; NowAverageFuelFlow_One
;;;696    
;;;697    
;;;698    }
000004  4770              BX       lr
;;;699    INT16U   OBD_GetNowAverageFuelFlow_Two (void){  			     // 本次平均油耗 2      (L/100Km)
                          ENDP

000006  0000              DCW      0x0000
                  |L22.8|
                          DCD      NowAverageFuelFlow_One

                          AREA ||i.OBD_GetNowAverageFuelFlow_Three||, CODE, READONLY, ALIGN=2

                  OBD_GetNowAverageFuelFlow_Three PROC
;;;703    }
;;;704    INT16U   OBD_GetNowAverageFuelFlow_Three (void){  			     // 本次平均油耗3       (L/100Km)
000000  4801              LDR      r0,|L23.8|
;;;705    	return (NowAverageFuelFlow_Three);
000002  8800              LDRH     r0,[r0,#0]  ; NowAverageFuelFlow_Three
;;;706    }	
000004  4770              BX       lr
                          ENDP

000006  0000              DCW      0x0000
                  |L23.8|
                          DCD      NowAverageFuelFlow_Three

                          AREA ||i.OBD_GetNowAverageFuelFlow_Two||, CODE, READONLY, ALIGN=2

                  OBD_GetNowAverageFuelFlow_Two PROC
;;;698    }
;;;699    INT16U   OBD_GetNowAverageFuelFlow_Two (void){  			     // 本次平均油耗 2      (L/100Km)
000000  4801              LDR      r0,|L24.8|
;;;700    
;;;701    return (NowAverageFuelFlow_Two);
000002  8800              LDRH     r0,[r0,#0]  ; NowAverageFuelFlow_Two
;;;702    
;;;703    }
000004  4770              BX       lr
;;;704    INT16U   OBD_GetNowAverageFuelFlow_Three (void){  			     // 本次平均油耗3       (L/100Km)
                          ENDP

000006  0000              DCW      0x0000
                  |L24.8|
                          DCD      NowAverageFuelFlow_Two

                          AREA ||i.OBD_GetStatus||, CODE, READONLY, ALIGN=2

                  OBD_GetStatus PROC
;;;578     */
;;;579    OBDStaEnum OBD_GetStatus(void)
000000  4801              LDR      r0,|L25.8|
;;;580    {
;;;581    	return (OBDSta);
000002  7800              LDRB     r0,[r0,#0]  ; OBDSta
;;;582    }
000004  4770              BX       lr
;;;583    
                          ENDP

000006  0000              DCW      0x0000
                  |L25.8|
                          DCD      OBDSta

                          AREA ||i.OBD_GetWaterTemperature||, CODE, READONLY, ALIGN=2

                  OBD_GetWaterTemperature PROC
;;;642    
;;;643    INT16S OBD_GetWaterTemperature(void)
000000  4801              LDR      r0,|L26.8|
;;;644    {
;;;645    return (ECT);
000002  f9b00000          LDRSH    r0,[r0,#0]  ; ECT
;;;646    
;;;647    }
000006  4770              BX       lr
;;;648    INT8U OBD_GetALD(void){ //绝对负荷
                          ENDP

                  |L26.8|
                          DCD      ECT

                          AREA ||i.OBD_PreToDiagnose||, CODE, READONLY, ALIGN=2

                  OBD_PreToDiagnose PROC
;;;315     */
;;;316    void OBD_PreToDiagnose(void)
000000  b510              PUSH     {r4,lr}
;;;317    {
;;;318    	OBD_UART_Enable();			           // 使能串口
000002  f7fffffe          BL       OBD_UART_Enable
;;;319    	OBD_Enable_RcvIT();			           // 使能中断
000006  f7fffffe          BL       OBD_Enable_RcvIT
;;;320    	Open_OBDPower();			           // 打开OBD电源
00000a  f7fffffe          BL       Open_OBDPower
;;;321    	OBDSta = OBD_Default;
00000e  2000              MOVS     r0,#0
000010  490a              LDR      r1,|L27.60|
000012  7008              STRB     r0,[r1,#0]
;;;322    	OBDTaskOver = bFALSE;
000014  490a              LDR      r1,|L27.64|
000016  7008              STRB     r0,[r1,#0]
;;;323    	OBDCom = Req;
000018  490a              LDR      r1,|L27.68|
00001a  7008              STRB     r0,[r1,#0]
;;;324    	OBDCmdNum = 0;
00001c  490a              LDR      r1,|L27.72|
00001e  7008              STRB     r0,[r1,#0]
;;;325    	Timer_Set(&OBDSCmdTim,1000);	
000020  f44f717a          MOV      r1,#0x3e8
000024  4809              LDR      r0,|L27.76|
000026  f7fffffe          BL       Timer_Set
;;;326    	Timer_Set(&OBDOpenPowerTim,3000);
00002a  f64031b8          MOV      r1,#0xbb8
00002e  4808              LDR      r0,|L27.80|
000030  f7fffffe          BL       Timer_Set
;;;327    	Timer_Reset(&OBD_CarDrvTim);
000034  4807              LDR      r0,|L27.84|
000036  f7fffffe          BL       Timer_Reset
;;;328    }
00003a  bd10              POP      {r4,pc}
;;;329    
                          ENDP

                  |L27.60|
                          DCD      OBDSta
                  |L27.64|
                          DCD      OBDTaskOver
                  |L27.68|
                          DCD      OBDCom
                  |L27.72|
                          DCD      OBDCmdNum
                  |L27.76|
                          DCD      OBDSCmdTim
                  |L27.80|
                          DCD      OBDOpenPowerTim
                  |L27.84|
                          DCD      OBD_CarDrvTim

                          AREA ||i.OBD_SetDiagnoseOver||, CODE, READONLY, ALIGN=2

                  OBD_SetDiagnoseOver PROC
;;;173     */
;;;174    void OBD_SetDiagnoseOver(void)
000000  b510              PUSH     {r4,lr}
;;;175    {
;;;176    	Close_OBDPower();		      // 关闭OBD电源
000002  f7fffffe          BL       Close_OBDPower
;;;177    	OBDTaskOver = bTRUE;	      // OBD诊断结束
000006  2001              MOVS     r0,#1
000008  4902              LDR      r1,|L28.20|
00000a  7008              STRB     r0,[r1,#0]
;;;178    	OBDSta = OBD_Stop;
00000c  2002              MOVS     r0,#2
00000e  4902              LDR      r1,|L28.24|
000010  7008              STRB     r0,[r1,#0]
;;;179    }
000012  bd10              POP      {r4,pc}
;;;180    
                          ENDP

                  |L28.20|
                          DCD      OBDTaskOver
                  |L28.24|
                          DCD      OBDSta

                          AREA ||i.Obd_ASCToHex||, CODE, READONLY, ALIGN=1

                  Obd_ASCToHex PROC
;;;98      */
;;;99     INT32U Obd_ASCToHex(INT8U x , INT8U y)
000000  4602              MOV      r2,r0
;;;100    {
;;;101    	if( x > 0x40 ){
000002  2a40              CMP      r2,#0x40
000004  dd03              BLE      |L29.14|
;;;102    		x = x - 0x41 + 10;
000006  f1a20037          SUB      r0,r2,#0x37
00000a  b2c2              UXTB     r2,r0
00000c  e002              B        |L29.20|
                  |L29.14|
;;;103    	}else{
;;;104    		x = x - 0x30;
00000e  f1a20030          SUB      r0,r2,#0x30
000012  b2c2              UXTB     r2,r0
                  |L29.20|
;;;105    	}
;;;106    	if( y > 0x40 ){
000014  2940              CMP      r1,#0x40
000016  dd03              BLE      |L29.32|
;;;107    		y = y - 0x41 + 10;
000018  f1a10037          SUB      r0,r1,#0x37
00001c  b2c1              UXTB     r1,r0
00001e  e002              B        |L29.38|
                  |L29.32|
;;;108    	}else{
;;;109    		y = y - 0x30;
000020  f1a10030          SUB      r0,r1,#0x30
000024  b2c1              UXTB     r1,r0
                  |L29.38|
;;;110        } 
;;;111        return  x * 16 + y;    
000026  eb011002          ADD      r0,r1,r2,LSL #4
;;;112    }
00002a  4770              BX       lr
;;;113    
                          ENDP


                          AREA ||.bss||, DATA, NOINIT, ALIGN=0

                  DTCInfo_PerECU
                          %        565
                  DTCInfo
                          %        60

                          AREA ||.conststring||, DATA, READONLY, MERGE=1, STRINGS, ALIGN=0

000000  41545350          DCB      "ATSP0\r",0
000004  300d00  
000007  41545354          DCB      "ATST4B\r",0
00000b  34420d00
00000f  41544530          DCB      "ATE0\r",0
000013  0d00    
000015  30313043          DCB      "010C\r",0
000019  0d00    
00001b  41544450          DCB      "ATDPN\r",0
00001f  4e0d00  
000022  41544831          DCB      "ATH1\r",0
000026  0d00    
000028  30330d00          DCB      "03\r",0
00002c  41544830          DCB      "ATH0\r",0
000030  0d00    
000032  30313044          DCB      "010D\r",0
000036  0d00    
000038  30313034          DCB      "0104\r",0
00003c  0d00    
00003e  30313035          DCB      "0105\r",0
000042  0d00    
000044  30313042          DCB      "010B\r",0
000048  0d00    
00004a  30313046          DCB      "010F\r",0
00004e  0d00    
000050  30313130          DCB      "0110\r",0
000054  0d00    
000056  30313433          DCB      "0143\r",0
00005a  0d00    

                          AREA ||.data||, DATA, ALIGN=3

                  ||Km||
000000  00000000          DCFD     0x0000000000000000 ; 0
000004  00000000
                  DrvTime
                          DCD      0x00000000
                  LastSpd
00000c  00                DCB      0x00
                  NowSpd
00000d  00                DCB      0x00
                  ALD
00000e  0000              DCB      0x00,0x00
                  IAT
000010  0000              DCW      0x0000
                  MAP
000012  0000              DCB      0x00,0x00
                          DCD      0x00000000
                  MAF
000018  00000000          DCFD     0x0000000000000000 ; 0
00001c  00000000
                  ||RPM||
000020  0000              DCW      0x0000
                  Load
000022  0000              DCB      0x00,0x00
                  ECT
000024  0000              DCW      0x0000
000026  0000              DCB      0x00,0x00
                  Fuel_One
000028  00000000          DCFD     0x0000000000000000 ; 0
00002c  00000000
                  Fuel_Two
000030  00000000          DCFD     0x0000000000000000 ; 0
000034  00000000
                  Fuel_Three
000038  00000000          DCFD     0x0000000000000000 ; 0
00003c  00000000
                  LastCurrentFuel_One
000040  00000000          DCFD     0x0000000000000000 ; 0
000044  00000000
                  LastCurrentFuel_Two
000048  00000000          DCFD     0x0000000000000000 ; 0
00004c  00000000
                  LastCurrentFuel_Three
000050  00000000          DCFD     0x0000000000000000 ; 0
000054  00000000
                  NowCurrentFuel_One
000058  00000000          DCFD     0x0000000000000000 ; 0
00005c  00000000
                  NowCurrentFuel_Two
000060  00000000          DCFD     0x0000000000000000 ; 0
000064  00000000
                  NowCurrentFuel_Three
000068  00000000          DCFD     0x0000000000000000 ; 0
00006c  00000000
                  NowAverageFuelFlow_One
000070  0000              DCW      0x0000
                  NowAverageFuelFlow_Two
000072  0000              DCW      0x0000
                  NowAverageFuelFlow_Three
000074  0000              DCW      0x0000
000076  0000              DCB      0x00,0x00
                  OBDCMD
                          DCD      ||.conststring||
00007c  06000000          DCB      0x06,0x00,0x00,0x00
                          DCD      ||.conststring||+0x7
000084  07000000          DCB      0x07,0x00,0x00,0x00
                          DCD      ||.conststring||+0xf
00008c  05000000          DCB      0x05,0x00,0x00,0x00
                          DCD      ||.conststring||+0x15
000094  05000000          DCB      0x05,0x00,0x00,0x00
                          DCD      ||.conststring||+0x1b
00009c  06000000          DCB      0x06,0x00,0x00,0x00
                          DCD      ||.conststring||+0x22
0000a4  05000000          DCB      0x05,0x00,0x00,0x00
                          DCD      ||.conststring||+0x28
0000ac  03000000          DCB      0x03,0x00,0x00,0x00
                          DCD      ||.conststring||+0x2c
0000b4  05000000          DCB      0x05,0x00,0x00,0x00
                          DCD      ||.conststring||+0x15
0000bc  05000000          DCB      0x05,0x00,0x00,0x00
                          DCD      ||.conststring||+0x32
0000c4  05000000          DCB      0x05,0x00,0x00,0x00
                          DCD      ||.conststring||+0x38
0000cc  05000000          DCB      0x05,0x00,0x00,0x00
                          DCD      ||.conststring||+0x3e
0000d4  05000000          DCB      0x05,0x00,0x00,0x00
                          DCD      ||.conststring||+0x44
0000dc  05000000          DCB      0x05,0x00,0x00,0x00
                          DCD      ||.conststring||+0x4a
0000e4  05000000          DCB      0x05,0x00,0x00,0x00
                          DCD      ||.conststring||+0x50
0000ec  05000000          DCB      0x05,0x00,0x00,0x00
                          DCD      ||.conststring||+0x56
0000f4  05000000          DCB      0x05,0x00,0x00,0x00
                  OBDSta
0000f8  00                DCB      0x00
                  OBDPro
0000f9  00                DCB      0x00
                  OBDTaskOver
0000fa  00                DCB      0x00
                  OBDCom
0000fb  00                DCB      0x00
                  OBDCmdNum
0000fc  00000000          DCB      0x00,0x00,0x00,0x00
                  OBDUartTim
                          %        8
                  OBDSCmdTim
                          %        8
                  OBDOpenPowerTim
                          %        8
                  OBD_CarDrvTim
                          %        8
                  DTCNum
000120  00                DCB      0x00
                  ECUNum
000121  00                DCB      0x00
